(lp1
(F0.0064799785614013672
I6
tp2
a(F0.0073151588439941406
I8
tp3
a(F0.0047700405120849609
I8
tp4
a(F0.0037109851837158203
I8
tp5
a(F0.0026531219482421875
I8
tp6
a(F0.0035359859466552734
I8
tp7
a(F0.0035371780395507812
I8
tp8
a(F0.0037579536437988281
I8
tp9
a(F0.0017638206481933594
I8
tp10
a(F0.0022490024566650391
I9
tp11
a(F0.0033969879150390625
I10
tp12
a(F0.0027258396148681641
I10
tp13
a(F0.0027010440826416016
I10
tp14
a(F0.0028231143951416016
I10
tp15
a(F0.0017948150634765625
I10
tp16
a(F0.0017871856689453125
I10
tp17
a(F0.0018351078033447266
I11
tp18
a(F0.0018310546875
I12
tp19
a(F0.0018391609191894531
I12
tp20
a(F0.002445220947265625
I12
tp21
a(F0.0013680458068847656
I12
tp22
a(F0.0013768672943115234
I12
tp23
a(F0.0013680458068847656
I12
tp24
a(F0.0013659000396728516
I12
tp25
a(F0.00138092041015625
I12
tp26
a(F0.0024969577789306641
I15
tp27
a(F0.002407073974609375
I15
tp28
a(F0.0023958683013916016
I15
tp29
a(F0.0028939247131347656
I16
tp30
a(F0.0024259090423583984
I16
tp31
a(F0.00244903564453125
I17
tp32
a(F0.002452850341796875
I17
tp33
a(F0.0025410652160644531
I17
tp34
a(F0.0024750232696533203
I18
tp35
a(F0.0034968852996826172
I19
tp36
a(F0.0030369758605957031
I19
tp37
a(F0.0025568008422851562
I19
tp38
a(F0.0020020008087158203
I19
tp39
a(F0.0025508403778076172
I20
tp40
a(F0.0025620460510253906
I20
tp41
a(F0.0025501251220703125
I20
tp42
a(F0.0020570755004882812
I20
tp43
a(F0.0020329952239990234
I20
tp44
a(F0.0020499229431152344
I20
tp45
a(F0.0025591850280761719
I21
tp46
a(F0.0033390522003173828
I22
tp47
a(F0.0026390552520751953
I22
tp48
a(F0.0026159286499023438
I22
tp49
a(F0.0027191638946533203
I22
tp50
a(F0.0031769275665283203
I23
tp51
a(F0.0032131671905517578
I23
tp52
a(F0.0026500225067138672
I23
tp53
a(F0.0026750564575195312
I23
tp54
a(F0.0026769638061523438
I23
tp55
a(F0.0026659965515136719
I23
tp56
a(F0.0032210350036621094
I24
tp57
a(F0.0032601356506347656
I24
tp58
a(F0.0038218498229980469
I25
tp59
a(F0.003849029541015625
I25
tp60
a(F0.0044231414794921875
I26
tp61
a(F0.0039770603179931641
I26
tp62
a(F0.0035440921783447266
I26
tp63
a(F0.0027918815612792969
I26
tp64
a(F0.0050241947174072266
I26
tp65
a(F0.0034198760986328125
I26
tp66
a(F0.0034160614013671875
I26
tp67
a(F0.0034620761871337891
I27
tp68
a(F0.0023331642150878906
I27
tp69
a(F0.0028970241546630859
I28
tp70
a(F0.0040838718414306641
I29
tp71
a(F0.0041601657867431641
I29
tp72
a(F0.0042319297790527344
I29
tp73
a(F0.00415802001953125
I29
tp74
a(F0.0035960674285888672
I29
tp75
a(F0.0045158863067626953
I29
tp76
a(F0.0029377937316894531
I29
tp77
a(F0.0023219585418701172
I29
tp78
a(F0.0029189586639404297
I30
tp79
a(F0.0029711723327636719
I30
tp80
a(F0.0057959556579589844
I31
tp81
a(F0.0030260086059570312
I31
tp82
a(F0.0036189556121826172
I32
tp83
a(F0.0037889480590820312
I32
tp84
a(F0.0036780834197998047
I32
tp85
a(F0.0036559104919433594
I33
tp86
a(F0.0054471492767333984
I33
tp87
a(F0.0037360191345214844
I33
tp88
a(F0.0037078857421875
I34
tp89
a(F0.0039381980895996094
I34
tp90
a(F0.0038001537322998047
I34
tp91
a(F0.0038030147552490234
I34
tp92
a(F0.0038058757781982422
I34
tp93
a(F0.0044929981231689453
I35
tp94
a(F0.0045390129089355469
I35
tp95
a(F0.0051639080047607422
I36
tp96
a(F0.0052709579467773438
I36
tp97
a(F0.0045869350433349609
I36
tp98
a(F0.0039288997650146484
I36
tp99
a(F0.0039260387420654297
I36
tp100
a(F0.0045590400695800781
I37
tp101
a(F0.0047600269317626953
I38
tp102
a(F0.0048570632934570312
I38
tp103
a(F0.0047600269317626953
I38
tp104
a(F0.0047681331634521484
I38
tp105
a(F0.0040900707244873047
I38
tp106
a(F0.0042688846588134766
I38
tp107
a(F0.0040671825408935547
I38
tp108
a(F0.0033721923828125
I38
tp109
a(F0.0033698081970214844
I38
tp110
a(F0.0040059089660644531
I39
tp111
a(F0.0047860145568847656
I41
tp112
a(F0.0050630569458007812
I42
tp113
a(F0.0043261051177978516
I42
tp114
a(F0.0057990550994873047
I42
tp115
a(F0.0057568550109863281
I43
tp116
a(F0.0059168338775634766
I43
tp117
a(F0.0066258907318115234
I44
tp118
a(F0.0060789585113525391
I44
tp119
a(F0.0059919357299804688
I44
tp120
a(F0.0067248344421386719
I45
tp121
a(F0.0084099769592285156
I47
tp122
a(F0.0071151256561279297
I47
tp123
a(F0.0082459449768066406
I47
tp124
a(F0.0071909427642822266
I48
tp125
a(F0.0073049068450927734
I48
tp126
a(F0.0081942081451416016
I50
tp127
a(F0.0067729949951171875
I50
tp128
a(F0.0058851242065429688
I50
tp129
a(F0.004940032958984375
I50
tp130
a(F0.0056149959564208984
I52
tp131
a(F0.0051391124725341797
I52
tp132
a(F0.0051338672637939453
I52
tp133
a(F0.0059969425201416016
I52
tp134
a(F0.0067529678344726562
I53
tp135
a(F0.0061080455780029297
I53
tp136
a(F0.0070209503173828125
I54
tp137
a(F0.0070769786834716797
I55
tp138
a(F0.0072350502014160156
I55
tp139
a(F0.0063118934631347656
I55
tp140
a(F0.0061509609222412109
I56
tp141
a(F0.0060369968414306641
I58
tp142
a(F0.0056600570678710938
I58
tp143
a(F0.0037639141082763672
I58
tp144
a(F0.0038330554962158203
I58
tp145
a(F0.0037050247192382812
I58
tp146
a(F0.0036990642547607422
I58
tp147
a(F0.0037019252777099609
I58
tp148
a(F0.0044839382171630859
I59
tp149
a(F0.0037670135498046875
I59
tp150
a(F0.0037658214569091797
I59
tp151
a(F0.0037939548492431641
I59
tp152
a(F0.0027699470520019531
I59
tp153
a(F0.0035870075225830078
I60
tp154
a(F0.0038959980010986328
I60
tp155
a(F0.0028100013732910156
I60
tp156
a(F0.0028078556060791016
I60
tp157
a(F0.0028030872344970703
I60
tp158
a(F0.0028121471405029297
I60
tp159
a(F0.0029511451721191406
I60
tp160
a(F0.0017921924591064453
I60
tp161
a(F0.0017991065979003906
I60
tp162
a(F0.00088214874267578125
I60
tp163
a(F0.0007839202880859375
I60
tp164
a(F0.00077891349792480469
I60
tp165
a(F0.00077700614929199219
I60
tp166
a(F0.00078797340393066406
I60
tp167
a(F0.00077891349792480469
I60
tp168
a(F0.00077700614929199219
I60
tp169
a(F0.00077605247497558594
I60
tp170
a(F0.00077295303344726562
I60
tp171
a(F0.0007839202880859375
I60
tp172
a(F0.00286102294921875
I60
tp173
a(F0.0028178691864013672
I60
tp174
a(F0.0028030872344970703
I60
tp175
a(F0.0039200782775878906
I60
tp176
a(F0.0038540363311767578
I60
tp177
a(F0.004840850830078125
I60
tp178
a(F0.0028219223022460938
I60
tp179
a(F0.0049140453338623047
I60
tp180
a(F0.0038268566131591797
I60
tp181
a(F0.00279998779296875
I60
tp182
a(F0.0039439201354980469
I60
tp183
a(F0.0028090476989746094
I60
tp184
a(F0.0028321743011474609
I60
tp185
a(F0.0038280487060546875
I60
tp186
a(F0.0029809474945068359
I60
tp187
a(F0.0038161277770996094
I60
tp188
a(F0.0039660930633544922
I60
tp189
a(F0.0028228759765625
I60
tp190
a(F0.0038599967956542969
I60
tp191
a(F0.0038311481475830078
I60
tp192
a(F0.0048410892486572266
I60
tp193
a(F0.0048258304595947266
I60
tp194
a(F0.0037989616394042969
I60
tp195
a(F0.0039250850677490234
I60
tp196
a(F0.00279998779296875
I60
tp197
a(F0.0038878917694091797
I60
tp198
a(F0.0046830177307128906
I61
tp199
a(F0.0047018527984619141
I62
tp200
a(F0.0081279277801513672
I62
tp201
a(F0.00817108154296875
I62
tp202
a(F0.0081501007080078125
I62
tp203
a(F0.0071728229522705078
I62
tp204
a(F0.0072331428527832031
I62
tp205
a(F0.0060439109802246094
I62
tp206
a(F0.0068991184234619141
I63
tp207
a(F0.0061359405517578125
I63
tp208
a(F0.0071759223937988281
I64
tp209
a(F0.0074110031127929688
I64
tp210
a(F0.0073080062866210938
I64
tp211
a(F0.0074629783630371094
I64
tp212
a(F0.0073270797729492188
I64
tp213
a(F0.0073339939117431641
I64
tp214
a(F0.0061380863189697266
I65
tp215
a(F0.00722503662109375
I66
tp216
a(F0.0064949989318847656
I66
tp217
a(F0.0075240135192871094
I66
tp218
a(F0.0065610408782958984
I66
tp219
a(F0.0062079429626464844
I67
tp220
a(F0.0085020065307617188
I69
tp221
a(F0.0054240226745605469
I70
tp222
a(F0.0065970420837402344
I71
tp223
a(F0.0087840557098388672
I73
tp224
a(F0.0098211765289306641
I73
tp225
a(F0.010006904602050781
I73
tp226
a(F0.0098488330841064453
I73
tp227
a(F0.0086779594421386719
I73
tp228
a(F0.005970001220703125
I73
tp229
a(F0.006011962890625
I73
tp230
a(F0.0059931278228759766
I73
tp231
a(F0.0061869621276855469
I73
tp232
a(F0.0059859752655029297
I73
tp233
a(F0.0059480667114257812
I73
tp234
a(F0.0046720504760742188
I73
tp235
a(F0.0034098625183105469
I73
tp236
a(F0.0034060478210449219
I73
tp237
a(F0.0034158229827880859
I73
tp238
a(F0.00341796875
I73
tp239
a(F0.000885009765625
I73
tp240
a(F0.00087308883666992188
I73
tp241
a(F0.00086903572082519531
I73
tp242
a(F0.00087213516235351562
I73
tp243
a(F0.00096487998962402344
I73
tp244
a(F0.00087213516235351562
I73
tp245
a(F0.00086808204650878906
I73
tp246
a(F0.00087213516235351562
I73
tp247
a(F0.000888824462890625
I73
tp248
a(F0.0021739006042480469
I73
tp249
a(F0.0034420490264892578
I73
tp250
a(F0.0046849250793457031
I73
tp251
a(F0.00860595703125
I73
tp252
a(F0.0084979534149169922
I73
tp253
a(F0.0085289478302001953
I73
tp254
a(F0.00722503662109375
I73
tp255
a(F0.011816978454589844
I73
tp256
a(F0.0087080001831054688
I73
tp257
a(F0.0072698593139648438
I73
tp258
a(F0.0060379505157470703
I73
tp259
a(F0.0046801567077636719
I73
tp260
a(F0.0046901702880859375
I73
tp261
a(F0.0046720504760742188
I73
tp262
a(F0.0046820640563964844
I73
tp263
a(F0.004695892333984375
I73
tp264
a(F0.0048091411590576172
I73
tp265
a(F0.0034310817718505859
I73
tp266
a(F0.0035600662231445312
I73
tp267
a(F0.0021448135375976562
I73
tp268
a(F0.0035030841827392578
I73
tp269
a(F0.0047540664672851562
I73
tp270
a(F0.00469207763671875
I73
tp271
a(F0.0046799182891845703
I73
tp272
a(F0.0046839714050292969
I73
tp273
a(F0.0046851634979248047
I73
tp274
a(F0.0034251213073730469
I73
tp275
a(F0.0021510124206542969
I73
tp276
a(F0.0021729469299316406
I73
tp277
a(F0.0034232139587402344
I73
tp278
a(F0.0067689418792724609
I75
tp279
a(F0.0063190460205078125
I75
tp280
a(F0.0074620246887207031
I75
tp281
a(F0.00350189208984375
I75
tp282
a(F0.0061190128326416016
I75
tp283
a(F0.0071201324462890625
I76
tp284
a(F0.0073089599609375
I77
tp285
a(F0.0063388347625732422
I77
tp286
a(F0.0079081058502197266
I77
tp287
a(F0.0077280998229980469
I77
tp288
a(F0.0073120594024658203
I78
tp289
a(F0.0089130401611328125
I78
tp290
a(F0.0079009532928466797
I78
tp291
a(F0.0078151226043701172
I78
tp292
a(F0.0095489025115966797
I78
tp293
a(F0.0080637931823730469
I78
tp294
a(F0.0078818798065185547
I78
tp295
a(F0.0064280033111572266
I78
tp296
a(F0.0064299106597900391
I78
tp297
a(F0.0064239501953125
I78
tp298
a(F0.0050389766693115234
I78
tp299
a(F0.003665924072265625
I78
tp300
a(F0.0036709308624267578
I78
tp301
a(F0.0038809776306152344
I78
tp302
a(F0.0037500858306884766
I78
tp303
a(F0.0022950172424316406
I78
tp304
a(F0.0023210048675537109
I78
tp305
a(F0.0009098052978515625
I78
tp306
a(F0.0009059906005859375
I78
tp307
a(F0.00090098381042480469
I78
tp308
a(F0.00090789794921875
I78
tp309
a(F0.000904083251953125
I78
tp310
a(F0.00090122222900390625
I78
tp311
a(F0.00090003013610839844
I78
tp312
a(F0.00091195106506347656
I78
tp313
a(F0.0023019313812255859
I78
tp314
a(F0.0022912025451660156
I78
tp315
a(F0.0050461292266845703
I78
tp316
a(F0.0060269832611083984
I79
tp317
a(F0.0065350532531738281
I79
tp318
a(F0.0080029964447021484
I79
tp319
a(F0.0080940723419189453
I79
tp320
a(F0.0065488815307617188
I79
tp321
a(F0.0089600086212158203
I80
tp322
a(F0.0066440105438232422
I80
tp323
a(F0.0066149234771728516
I80
tp324
a(F0.0067110061645507812
I80
tp325
a(F0.0051989555358886719
I80
tp326
a(F0.0081939697265625
I80
tp327
a(F0.0081140995025634766
I80
tp328
a(F0.0077569484710693359
I80
tp329
a(F0.0067319869995117188
I80
tp330
a(F0.0037789344787597656
I80
tp331
a(F0.0066471099853515625
I80
tp332
a(F0.0066280364990234375
I80
tp333
a(F0.0079228878021240234
I80
tp334
a(F0.0066521167755126953
I80
tp335
a(F0.0067880153656005859
I80
tp336
a(F0.0080940723419189453
I80
tp337
a(F0.0080718994140625
I80
tp338
a(F0.0066330432891845703
I80
tp339
a(F0.0066230297088623047
I80
tp340
a(F0.0067620277404785156
I80
tp341
a(F0.0081419944763183594
I80
tp342
a(F0.0081200599670410156
I80
tp343
a(F0.0080888271331787109
I80
tp344
a(F0.0095050334930419922
I80
tp345
a(F0.0066440105438232422
I80
tp346
a(F0.0052771568298339844
I80
tp347
a(F0.0081939697265625
I80
tp348
a(F0.0095639228820800781
I80
tp349
a(F0.0095448493957519531
I80
tp350
a(F0.0095198154449462891
I80
tp351
a(F0.0096402168273925781
I80
tp352
a(F0.0081877708435058594
I80
tp353
a(F0.0066580772399902344
I80
tp354
a(F0.0066320896148681641
I80
tp355
a(F0.0097680091857910156
I80
tp356
a(F0.0066790580749511719
I80
tp357
a(F0.0066390037536621094
I80
tp358
a(F0.0080587863922119141
I80
tp359
a(F0.0078701972961425781
I80
tp360
a(F0.0080859661102294922
I80
tp361
a(F0.0096890926361083984
I80
tp362
a(F0.0096049308776855469
I80
tp363
a(F0.0097990036010742188
I80
tp364
a(F0.011039972305297852
I80
tp365
a(F0.011004924774169922
I80
tp366
a(F0.0094859600067138672
I80
tp367
a(F0.0095639228820800781
I80
tp368
a(F0.0094978809356689453
I80
tp369
a(F0.0096800327301025391
I80
tp370
a(F0.010746955871582031
I81
tp371
a(F0.011094808578491211
I81
tp372
a(F0.011224985122680664
I81
tp373
a(F0.012225151062011719
I82
tp374
a(F0.012974977493286133
I82
tp375
a(F0.013924837112426758
I82
tp376
a(F0.0099301338195800781
I82
tp377
a(F0.0068459510803222656
I82
tp378
a(F0.010537147521972656
I83
tp379
a(F0.012989997863769531
I84
tp380
a(F0.0089111328125
I84
tp381
a(F0.0087580680847167969
I84
tp382
a(F0.0071809291839599609
I84
tp383
a(F0.0082299709320068359
I86
tp384
a(F0.0075201988220214844
I86
tp385
a(F0.0072538852691650391
I86
tp386
a(F0.0090830326080322266
I86
tp387
a(F0.0073120594024658203
I86
tp388
a(F0.0072450637817382812
I86
tp389
a(F0.0072560310363769531
I86
tp390
a(F0.007373809814453125
I86
tp391
a(F0.0058150291442871094
I86
tp392
a(F0.0069310665130615234
I87
tp393
a(F0.0089590549468994141
I88
tp394
a(F0.0092611312866210938
I88
tp395
a(F0.0075910091400146484
I88
tp396
a(F0.0086131095886230469
I89
tp397
a(F0.00775909423828125
I89
tp398
a(F0.0075840950012207031
I89
tp399
a(F0.0075922012329101562
I89
tp400
a(F0.0087687969207763672
I89
tp401
a(F0.0076341629028320312
I89
tp402
a(F0.0076029300689697266
I89
tp403
a(F0.0088210105895996094
I89
tp404
a(F0.0059478282928466797
I89
tp405
a(F0.0042951107025146484
I89
tp406
a(F0.0043709278106689453
I89
tp407
a(F0.0042920112609863281
I89
tp408
a(F0.0043010711669921875
I89
tp409
a(F0.0042941570281982422
I89
tp410
a(F0.0043330192565917969
I89
tp411
a(F0.0026371479034423828
I89
tp412
a(F0.0026500225067138672
I89
tp413
a(F0.0042958259582519531
I89
tp414
a(F0.005950927734375
I89
tp415
a(F0.0061359405517578125
I89
tp416
a(F0.0092358589172363281
I89
tp417
a(F0.010900020599365234
I89
tp418
a(F0.010908126831054688
I89
tp419
a(F0.0093529224395751953
I89
tp420
a(F0.0093791484832763672
I89
tp421
a(F0.0075938701629638672
I89
tp422
a(F0.0075809955596923828
I89
tp423
a(F0.0092439651489257812
I89
tp424
a(F0.0076498985290527344
I89
tp425
a(F0.010941982269287109
I89
tp426
a(F0.0093910694122314453
I89
tp427
a(F0.0092329978942871094
I89
tp428
a(F0.0059409141540527344
I89
tp429
a(F0.0070900917053222656
I89
tp430
a(F0.006134033203125
I89
tp431
a(F0.0076289176940917969
I89
tp432
a(F0.012479782104492188
I89
tp433
a(F0.012627840042114258
I89
tp434
a(F0.012524843215942383
I89
tp435
a(F0.0092389583587646484
I89
tp436
a(F0.0092871189117431641
I89
tp437
a(F0.012848138809204102
I89
tp438
a(F0.012573957443237305
I89
tp439
a(F0.014225959777832031
I89
tp440
a(F0.012782096862792969
I90
tp441
a(F0.012745141983032227
I90
tp442
a(F0.012747049331665039
I90
tp443
a(F0.011423826217651367
I90
tp444
a(F0.011084079742431641
I90
tp445
a(F0.011198997497558594
I90
tp446
a(F0.011092185974121094
I90
tp447
a(F0.010434865951538086
I91
tp448
a(F0.0078508853912353516
I91
tp449
a(F0.0095691680908203125
I91
tp450
a(F0.010751008987426758
I91
tp451
a(F0.0096008777618408203
I91
tp452
a(F0.0078029632568359375
I91
tp453
a(F0.0078599452972412109
I91
tp454
a(F0.0078330039978027344
I91
tp455
a(F0.0079350471496582031
I91
tp456
a(F0.010930061340332031
I93
tp457
a(F0.0098071098327636719
I93
tp458
a(F0.0080440044403076172
I93
tp459
a(F0.0096039772033691406
I94
tp460
a(F0.011762142181396484
I95
tp461
a(F0.011954069137573242
I95
tp462
a(F0.011922836303710938
I95
tp463
a(F0.010173797607421875
I95
tp464
a(F0.010157108306884766
I95
tp465
a(F0.011986017227172852
I96
tp466
a(F0.0085279941558837891
I96
tp467
a(F0.013386011123657227
I96
tp468
a(F0.012305021286010742
I97
tp469
a(F0.0087988376617431641
I97
tp470
a(F0.013989925384521484
I97
tp471
a(F0.012855052947998047
I97
tp472
a(F0.012748003005981445
I97
tp473
a(F0.012876987457275391
I97
tp474
a(F0.01270604133605957
I97
tp475
a(F0.010746002197265625
I97
tp476
a(F0.010422945022583008
I98
tp477
a(F0.010616064071655273
I98
tp478
a(F0.010436058044433594
I99
tp479
a(F0.014235973358154297
I101
tp480
a(F0.011460065841674805
I101
tp481
a(F0.012513875961303711
I103
tp482
a(F0.011065959930419922
I104
tp483
a(F0.011577844619750977
I104
tp484
a(F0.010529994964599609
I104
tp485
a(F0.0093858242034912109
I104
tp486
a(F0.0093789100646972656
I104
tp487
a(F0.012488842010498047
I105
tp488
a(F0.013639926910400391
I106
tp489
a(F0.011775016784667969
I106
tp490
a(F0.01175689697265625
I106
tp491
a(F0.01155400276184082
I107
tp492
a(F0.012323856353759766
I107
tp493
a(F0.011948823928833008
I107
tp494
a(F0.013994932174682617
I108
tp495
a(F0.014374971389770508
I109
tp496
a(F0.014496088027954102
I109
tp497
a(F0.014587163925170898
I109
tp498
a(F0.014699935913085938
I109
tp499
a(F0.010092020034790039
I109
tp500
a(F0.015473842620849609
I110
tp501
a(F0.012662887573242188
I110
tp502
a(F0.013634920120239258
I110
tp503
a(F0.01463007926940918
I111
tp504
a(F0.012617111206054688
I111
tp505
a(F0.012717962265014648
I111
tp506
a(F0.012850046157836914
I111
tp507
a(F0.010288000106811523
I111
tp508
a(F0.012585163116455078
I111
tp509
a(F0.010469913482666016
I111
tp510
a(F0.0080180168151855469
I111
tp511
a(F0.0081470012664794922
I111
tp512
a(F0.010010004043579102
I112
tp513
a(F0.0082499980926513672
I112
tp514
a(F0.0082440376281738281
I112
tp515
a(F0.0081858634948730469
I112
tp516
a(F0.0058159828186035156
I112
tp517
a(F0.0036189556121826172
I112
tp518
a(F0.0034840106964111328
I112
tp519
a(F0.0034701824188232422
I112
tp520
a(F0.0034739971160888672
I112
tp521
a(F0.0011439323425292969
I112
tp522
a(F0.0030119419097900391
I113
tp523
a(F0.0011770725250244141
I113
tp524
a(F0.0036218166351318359
I113
tp525
a(F0.0011630058288574219
I113
tp526
a(F0.0045988559722900391
I113
tp527
a(F0.0011720657348632812
I113
tp528
a(F0.0011498928070068359
I113
tp529
a(F0.0035200119018554688
I113
tp530
a(F0.0083310604095458984
I113
tp531
a(F0.014273881912231445
I113
tp532
a(F0.013045072555541992
I113
tp533
a(F0.012931108474731445
I113
tp534
a(F0.010666847229003906
I113
tp535
a(F0.013202905654907227
I113
tp536
a(F0.010640144348144531
I113
tp537
a(F0.0082998275756835938
I113
tp538
a(F0.0082781314849853516
I113
tp539
a(F0.010670900344848633
I113
tp540
a(F0.015480995178222656
I113
tp541
a(F0.010637998580932617
I113
tp542
a(F0.013019084930419922
I113
tp543
a(F0.0083029270172119141
I113
tp544
a(F0.010742902755737305
I113
tp545
a(F0.010604143142700195
I113
tp546
a(F0.010664939880371094
I113
tp547
a(F0.014085054397583008
I113
tp548
a(F0.010695934295654297
I113
tp549
a(F0.011929988861083984
I113
tp550
a(F0.010583162307739258
I113
tp551
a(F0.01058197021484375
I113
tp552
a(F0.010654926300048828
I113
tp553
a(F0.0083451271057128906
I113
tp554
a(F0.00839996337890625
I113
tp555
a(F0.0082228183746337891
I113
tp556
a(F0.0058701038360595703
I113
tp557
a(F0.0058789253234863281
I113
tp558
a(F0.0082299709320068359
I113
tp559
a(F0.010792016983032227
I113
tp560
a(F0.010746002197265625
I113
tp561
a(F0.010627985000610352
I113
tp562
a(F0.0106658935546875
I113
tp563
a(F0.00829315185546875
I113
tp564
a(F0.0062100887298583984
I113
tp565
a(F0.0084159374237060547
I113
tp566
a(F0.0082638263702392578
I113
tp567
a(F0.0082380771636962891
I113
tp568
a(F0.0083260536193847656
I113
tp569
a(F0.0093090534210205078
I113
tp570
a(F0.0082530975341796875
I113
tp571
a(F0.0084278583526611328
I113
tp572
a(F0.0094051361083984375
I113
tp573
a(F0.0060269832611083984
I113
tp574
a(F0.010582923889160156
I113
tp575
a(F0.01058506965637207
I113
tp576
a(F0.010740995407104492
I113
tp577
a(F0.010814905166625977
I113
tp578
a(F0.010419845581054688
I114
tp579
a(F0.012726783752441406
I115
tp580
a(F0.011359930038452148
I115
tp581
a(F0.013480186462402344
I115
tp582
a(F0.013319969177246094
I115
tp583
a(F0.015573978424072266
I116
tp584
a(F0.016119956970214844
I116
tp585
a(F0.016047000885009766
I116
tp586
a(F0.016995906829833984
I116
tp587
a(F0.011025905609130859
I116
tp588
a(F0.014765024185180664
I116
tp589
a(F0.011101007461547852
I116
tp590
a(F0.013229846954345703
I117
tp591
a(F0.018837928771972656
I119
tp592
a(F0.01955103874206543
I120
tp593
a(F0.01957392692565918
I120
tp594
a(F0.019598007202148438
I120
tp595
a(F0.019547939300537109
I121
tp596
a(F0.017117023468017578
I121
tp597
a(F0.020227909088134766
I122
tp598
a(F0.018379926681518555
I122
tp599
a(F0.021234989166259766
I122
tp600
a(F0.019882917404174805
I122
tp601
a(F0.019925832748413086
I123
tp602
a(F0.01779484748840332
I123
tp603
a(F0.020042896270751953
I124
tp604
a(F0.02308201789855957
I125
tp605
a(F0.020913839340209961
I125
tp606
a(F0.023565053939819336
I126
tp607
a(F0.026080846786499023
I126
tp608
a(F0.025639057159423828
I127
tp609
a(F0.032838106155395508
I127
tp610
a(F0.030538797378540039
I127
tp611
a(F0.027970075607299805
I128
tp612
a(F0.021735906600952148
I128
tp613
a(F0.021584033966064453
I128
tp614
a(F0.01892399787902832
I128
tp615
a(F0.015728950500488281
I129
tp616
a(F0.017099142074584961
I129
tp617
a(F0.014473915100097656
I129
tp618
a(F0.015617847442626953
I130
tp619
a(F0.019159078598022461
I130
tp620
a(F0.016460895538330078
I130
tp621
a(F0.016057968139648438
I130
tp622
a(F0.016181230545043945
I131
tp623
a(F0.019222021102905273
I132
tp624
a(F0.022358894348144531
I133
tp625
a(F0.023689031600952148
I133
tp626
a(F0.028525114059448242
I135
tp627
a(F0.011106014251708984
I135
tp628
a(F0.01506805419921875
I136
tp629
a(F0.016625881195068359
I138
tp630
a(F0.017886877059936523
I139
tp631
a(F0.016608953475952148
I139
tp632
a(F0.016028165817260742
I139
tp633
a(F0.016139030456542969
I139
tp634
a(F0.016387939453125
I140
tp635
a(F0.016561031341552734
I140
tp636
a(F0.012524127960205078
I140
tp637
a(F0.01270294189453125
I140
tp638
a(F0.016617774963378906
I141
tp639
a(F0.017670154571533203
I141
tp640
a(F0.016716957092285156
I141
tp641
a(F0.014001131057739258
I141
tp642
a(F0.012604951858520508
I141
tp643
a(F0.0090360641479492188
I141
tp644
a(F0.0090458393096923828
I141
tp645
a(F0.0090579986572265625
I141
tp646
a(F0.0090110301971435547
I141
tp647
a(F0.0013709068298339844
I141
tp648
a(F0.0013442039489746094
I141
tp649
a(F0.0013480186462402344
I141
tp650
a(F0.0013501644134521484
I141
tp651
a(F0.0013499259948730469
I141
tp652
a(F0.0090179443359375
I141
tp653
a(F0.012845039367675781
I141
tp654
a(F0.013029098510742188
I141
tp655
a(F0.016467094421386719
I141
tp656
a(F0.016583919525146484
I141
tp657
a(F0.012897014617919922
I141
tp658
a(F0.016582012176513672
I141
tp659
a(F0.021847963333129883
I142
tp660
a(F0.0091111660003662109
I142
tp661
a(F0.0053730010986328125
I142
tp662
a(F0.010149002075195312
I142
tp663
a(F0.012723207473754883
I142
tp664
a(F0.012815952301025391
I142
tp665
a(F0.013375043869018555
I142
tp666
a(F0.012789011001586914
I142
tp667
a(F0.016627788543701172
I142
tp668
a(F0.016850948333740234
I142
tp669
a(F0.016903162002563477
I142
tp670
a(F0.01670384407043457
I142
tp671
a(F0.016956090927124023
I143
tp672
a(F0.017250776290893555
I143
tp673
a(F0.017976999282836914
I143
tp674
a(F0.026614904403686523
I143
tp675
a(F0.024746894836425781
I143
tp676
a(F0.021255016326904297
I143
tp677
a(F0.013010025024414062
I143
tp678
a(F0.020821094512939453
I143
tp679
a(F0.024835109710693359
I143
tp680
a(F0.024794101715087891
I143
tp681
a(F0.024842023849487305
I143
tp682
a(F0.023865222930908203
I143
tp683
a(F0.027898073196411133
I143
tp684
a(F0.024564027786254883
I143
tp685
a(F0.033010959625244141
I146
tp686
a(F0.030189990997314453
I146
tp687
a(F0.029721975326538086
I146
tp688
a(F0.030357122421264648
I147
tp689
a(F0.031332969665527344
I147
tp690
a(F0.029278039932250977
I147
tp691
a(F0.039091110229492188
I150
tp692
a(F0.027077913284301758
I150
tp693
a(F0.022825956344604492
I150
tp694
a(F0.018575191497802734
I150
tp695
a(F0.01827692985534668
I150
tp696
a(F0.018651962280273438
I150
tp697
a(F0.019464969635009766
I150
tp698
a(F0.014398097991943359
I150
tp699
a(F0.011126041412353516
I150
tp700
a(F0.0098159313201904297
I150
tp701
a(F0.0099060535430908203
I150
tp702
a(F0.009906768798828125
I150
tp703
a(F0.0099420547485351562
I150
tp704
a(F0.010240077972412109
I150
tp705
a(F0.0057919025421142578
I150
tp706
a(F0.0014579296112060547
I150
tp707
a(F0.0014400482177734375
I150
tp708
a(F0.0014369487762451172
I150
tp709
a(F0.0057289600372314453
I150
tp710
a(F0.0057919025421142578
I150
tp711
a(F0.0056569576263427734
I150
tp712
a(F0.0014660358428955078
I150
tp713
a(F0.0014390945434570312
I150
tp714
a(F0.00144195556640625
I150
tp715
a(F0.010004997253417969
I150
tp716
a(F0.018599033355712891
I150
tp717
a(F0.018342018127441406
I150
tp718
a(F0.01424098014831543
I150
tp719
a(F0.014434814453125
I150
tp720
a(F0.021065950393676758
I150
tp721
a(F0.018631219863891602
I150
tp722
a(F0.021131992340087891
I150
tp723
a(F0.01842808723449707
I150
tp724
a(F0.022817850112915039
I150
tp725
a(F0.023126840591430664
I151
tp726
a(F0.014686107635498047
I151
tp727
a(F0.0057008266448974609
I151
tp728
a(F0.036764860153198242
I152
tp729
a(F0.028253078460693359
I152
tp730
a(F0.033748149871826172
I152
tp731
a(F0.020221948623657227
I152
tp732
a(F0.024457931518554688
I153
tp733
a(F0.02369999885559082
I153
tp734
a(F0.023934841156005859
I153
tp735
a(F0.014721870422363281
I153
tp736
a(F0.014616012573242188
I153
tp737
a(F0.019145965576171875
I153
tp738
a(F0.019162893295288086
I153
tp739
a(F0.014651060104370117
I153
tp740
a(F0.017889022827148438
I153
tp741
a(F0.016077995300292969
I153
tp742
a(F0.014647960662841797
I153
tp743
a(F0.015051841735839844
I154
tp744
a(F0.015082836151123047
I154
tp745
a(F0.010342121124267578
I154
tp746
a(F0.010319948196411133
I154
tp747
a(F0.010290861129760742
I154
tp748
a(F0.0063469409942626953
I154
tp749
a(F0.0060620307922363281
I154
tp750
a(F0.0014979839324951172
I154
tp751
a(F0.0014629364013671875
I154
tp752
a(F0.0014500617980957031
I154
tp753
a(F0.0014629364013671875
I154
tp754
a(F0.0014519691467285156
I154
tp755
a(F0.0014488697052001953
I154
tp756
a(F0.001544952392578125
I154
tp757
a(F0.0014631748199462891
I154
tp758
a(F0.0014519691467285156
I154
tp759
a(F0.0014541149139404297
I154
tp760
a(F0.0061957836151123047
I154
tp761
a(F0.014855146408081055
I154
tp762
a(F0.028595924377441406
I154
tp763
a(F0.024851083755493164
I154
tp764
a(F0.027120828628540039
I154
tp765
a(F0.023803949356079102
I154
tp766
a(F0.028203010559082031
I154
tp767
a(F0.028311014175415039
I154
tp768
a(F0.019291877746582031
I154
tp769
a(F0.019321918487548828
I154
tp770
a(F0.02836918830871582
I154
tp771
a(F0.026564121246337891
I154
tp772
a(F0.035540103912353516
I154
tp773
a(F0.028599023818969727
I154
tp774
a(F0.023835182189941406
I154
tp775
a(F0.01506495475769043
I154
tp776
a(F0.019457101821899414
I154
tp777
a(F0.032735824584960938
I154
tp778
a(F0.032609939575195312
I154
tp779
a(F0.039309024810791016
I154
tp780
a(F0.04159998893737793
I154
tp781
a(F0.041374921798706055
I154
tp782
a(F0.03676295280456543
I154
tp783
a(F0.032681941986083984
I154
tp784
a(F0.014768123626708984
I154
tp785
a(F0.018050909042358398
I154
tp786
a(F0.030698060989379883
I157
tp787
a(F0.039206981658935547
I159
tp788
a(F0.02581787109375
I159
tp789
a(F0.029921054840087891
I159
tp790
a(F0.034795045852661133
I159
tp791
a(F0.03595280647277832
I159
tp792
a(F0.042510986328125
I160
tp793
a(F0.04100489616394043
I161
tp794
a(F0.041204214096069336
I162
tp795
a(F0.046736955642700195
I163
tp796
a(F0.051276922225952148
I163
tp797
a(F0.047255992889404297
I164
tp798
a(F0.058076143264770508
I166
tp799
a(F0.058303117752075195
I166
tp800
a(F0.055698871612548828
I167
tp801
a(F0.059334993362426758
I167
tp802
a(F0.058450937271118164
I167
tp803
a(F0.07335209846496582
I170
tp804
a(F0.073583126068115234
I170
tp805
a(F0.06695103645324707
I170
tp806
a(F0.065079927444458008
I172
tp807
a(F0.046360969543457031
I172
tp808
a(F0.029900074005126953
I172
tp809
a(F0.018113136291503906
I172
tp810
a(F0.018671989440917969
I172
tp811
a(F0.018126964569091797
I172
tp812
a(F0.018325090408325195
I172
tp813
a(F0.020764827728271484
I172
tp814
a(F0.013263225555419922
I172
tp815
a(F0.012810230255126953
I172
tp816
a(F0.0078108310699462891
I172
tp817
a(F0.0016119480133056641
I172
tp818
a(F0.0016329288482666016
I172
tp819
a(F0.0015740394592285156
I172
tp820
a(F0.0015931129455566406
I172
tp821
a(F0.0015881061553955078
I172
tp822
a(F0.0015599727630615234
I172
tp823
a(F0.0015680789947509766
I172
tp824
a(F0.0015890598297119141
I172
tp825
a(F0.0016169548034667969
I172
tp826
a(F0.0015881061553955078
I172
tp827
a(F0.0015599727630615234
I172
tp828
a(F0.0078418254852294922
I172
tp829
a(F0.025664091110229492
I172
tp830
a(F0.031303882598876953
I173
tp831
a(F0.031327962875366211
I173
tp832
a(F0.037032127380371094
I173
tp833
a(F0.019026994705200195
I173
tp834
a(F0.018645048141479492
I173
tp835
a(F0.031032800674438477
I173
tp836
a(F0.024399995803833008
I173
tp837
a(F0.030105113983154297
I173
tp838
a(F0.024937152862548828
I173
tp839
a(F0.025784015655517578
I174
tp840
a(F0.019752979278564453
I174
tp841
a(F0.032286167144775391
I175
tp842
a(F0.034463882446289062
I175
tp843
a(F0.037332057952880859
I175
tp844
a(F0.056334018707275391
I177
tp845
a(F0.050035953521728516
I177
tp846
a(F0.043512105941772461
I177
tp847
a(F0.043318986892700195
I177
tp848
a(F0.031397104263305664
I177
tp849
a(F0.02563786506652832
I177
tp850
a(F0.027922868728637695
I177
tp851
a(F0.025631904602050781
I177
tp852
a(F0.019932031631469727
I177
tp853
a(F0.020501852035522461
I177
tp854
a(F0.020382881164550781
I177
tp855
a(F0.019826173782348633
I177
tp856
a(F0.020022153854370117
I177
tp857
a(F0.01994013786315918
I177
tp858
a(F0.013532161712646484
I177
tp859
a(F0.00774383544921875
I177
tp860
a(F0.0075571537017822266
I177
tp861
a(F0.00757598876953125
I177
tp862
a(F0.0016350746154785156
I177
tp863
a(F0.0016031265258789062
I177
tp864
a(F0.0016200542449951172
I177
tp865
a(F0.0019450187683105469
I177
tp866
a(F0.0016260147094726562
I177
tp867
a(F0.0016391277313232422
I177
tp868
a(F0.0015938282012939453
I177
tp869
a(F0.0016119480133056641
I177
tp870
a(F0.0082361698150634766
I177
tp871
a(F0.027694940567016602
I177
tp872
a(F0.025909185409545898
I177
tp873
a(F0.026533126831054688
I177
tp874
a(F0.026035070419311523
I177
tp875
a(F0.028017044067382812
I177
tp876
a(F0.025732040405273438
I177
tp877
a(F0.032043933868408203
I177
tp878
a(F0.031858921051025391
I177
tp879
a(F0.025748014450073242
I177
tp880
a(F0.037915945053100586
I177
tp881
a(F0.025724887847900391
I177
tp882
a(F0.025933980941772461
I177
tp883
a(F0.019774913787841797
I177
tp884
a(F0.04938507080078125
I177
tp885
a(F0.057180881500244141
I177
tp886
a(F0.049867153167724609
I177
tp887
a(F0.049851179122924805
I177
tp888
a(F0.049661874771118164
I177
tp889
a(F0.055277109146118164
I177
tp890
a(F0.048882961273193359
I177
tp891
a(F0.056846857070922852
I177
tp892
a(F0.049616098403930664
I177
tp893
a(F0.037824869155883789
I177
tp894
a(F0.038641929626464844
I177
tp895
a(F0.037703037261962891
I177
tp896
a(F0.032216072082519531
I177
tp897
a(F0.038275957107543945
I177
tp898
a(F0.037946939468383789
I177
tp899
a(F0.032428979873657227
I177
tp900
a(F0.039143085479736328
I177
tp901
a(F0.033811092376708984
I177
tp902
a(F0.039163827896118164
I177
tp903
a(F0.033622026443481445
I177
tp904
a(F0.031972885131835938
I177
tp905
a(F0.037661075592041016
I177
tp906
a(F0.0265960693359375
I177
tp907
a(F0.044766902923583984
I177
tp908
a(F0.044054985046386719
I177
tp909
a(F0.038960933685302734
I177
tp910
a(F0.04404902458190918
I177
tp911
a(F0.043510913848876953
I177
tp912
a(F0.037655115127563477
I177
tp913
a(F0.049283981323242188
I177
tp914
a(F0.037786006927490234
I177
tp915
a(F0.031955957412719727
I177
tp916
a(F0.037758111953735352
I177
tp917
a(F0.032330036163330078
I177
tp918
a(F0.033464908599853516
I177
tp919
a(F0.031788110733032227
I177
tp920
a(F0.03205108642578125
I177
tp921
a(F0.031570911407470703
I177
tp922
a(F0.032377004623413086
I177
tp923
a(F0.031756162643432617
I177
tp924
a(F0.03822016716003418
I177
tp925
a(F0.049842119216918945
I177
tp926
a(F0.049360036849975586
I177
tp927
a(F0.046352148056030273
I177
tp928
a(F0.055284976959228516
I177
tp929
a(F0.05557703971862793
I177
tp930
a(F0.049623012542724609
I177
tp931
a(F0.037781000137329102
I177
tp932
a(F0.037956953048706055
I177
tp933
a(F0.038014888763427734
I177
tp934
a(F0.051058053970336914
I177
tp935
a(F0.054872035980224609
I177
tp936
a(F0.05621790885925293
I177
tp937
a(F0.04920196533203125
I177
tp938
a(F0.049603939056396484
I177
tp939
a(F0.055147171020507812
I177
tp940
a(F0.065599918365478516
I179
tp941
a(F0.046042919158935547
I179
tp942
a(F0.039577960968017578
I179
tp943
a(F0.039703845977783203
I179
tp944
a(F0.034054994583129883
I180
tp945
a(F0.034171104431152344
I181
tp946
a(F0.041016817092895508
I181
tp947
a(F0.040812015533447266
I181
tp948
a(F0.034171819686889648
I181
tp949
a(F0.035128116607666016
I181
tp950
a(F0.034222841262817383
I181
tp951
a(F0.050246000289916992
I183
tp952
a(F0.036179065704345703
I183
tp953
a(F0.042263031005859375
I183
tp954
a(F0.04141998291015625
I183
tp955
a(F0.04148101806640625
I183
tp956
a(F0.03598785400390625
I183
tp957
a(F0.028961896896362305
I183
tp958
a(F0.02938389778137207
I183
tp959
a(F0.036594867706298828
I184
tp960
a(F0.035985946655273438
I184
tp961
a(F0.035835981369018555
I184
tp962
a(F0.035310029983520508
I184
tp963
a(F0.037515163421630859
I185
tp964
a(F0.029840946197509766
I185
tp965
a(F0.029932975769042969
I185
tp966
a(F0.038362026214599609
I186
tp967
a(F0.046695947647094727
I187
tp968
a(F0.044836044311523438
I187
tp969
a(F0.044232845306396484
I187
tp970
a(F0.044178962707519531
I187
tp971
a(F0.052567958831787109
I188
tp972
a(F0.046821117401123047
I189
tp973
a(F0.025195121765136719
I189
tp974
a(F0.031452178955078125
I189
tp975
a(F0.063519954681396484
I191
tp976
a(F0.047670125961303711
I191
tp977
a(F0.031971216201782227
I191
tp978
a(F0.040588855743408203
I191
tp979
a(F0.06468510627746582
I193
tp980
a(F0.058092832565307617
I193
tp981
a(F0.04915618896484375
I193
tp982
a(F0.050510168075561523
I194
tp983
a(F0.050670862197875977
I194
tp984
a(F0.049573898315429688
I194
tp985
a(F0.051578998565673828
I194
tp986
a(F0.041585922241210938
I194
tp987
a(F0.041986942291259766
I194
tp988
a(F0.051356077194213867
I195
tp989
a(F0.034443140029907227
I195
tp990
a(F0.035551071166992188
I196
tp991
a(F0.045011043548583984
I197
tp992
a(F0.037053108215332031
I198
tp993
a(F0.05402684211730957
I199
tp994
a(F0.047048091888427734
I199
tp995
a(F0.044985055923461914
I199
tp996
a(F0.046475887298583984
I199
tp997
a(F0.04555201530456543
I199
tp998
a(F0.045991182327270508
I199
tp999
a(F0.04631805419921875
I200
tp1000
a(F0.046631097793579102
I200
tp1001
a(F0.046624183654785156
I201
tp1002
a(F0.046844959259033203
I201
tp1003
a(F0.057124853134155273
I201
tp1004
a(F0.046448945999145508
I201
tp1005
a(F0.037720918655395508
I201
tp1006
a(F0.047325849533081055
I202
tp1007
a(F0.047628164291381836
I202
tp1008
a(F0.038294076919555664
I202
tp1009
a(F0.046844005584716797
I202
tp1010
a(F0.047826051712036133
I203
tp1011
a(F0.039270877838134766
I204
tp1012
a(F0.039850950241088867
I204
tp1013
a(F0.039300918579101562
I204
tp1014
a(F0.049312114715576172
I205
tp1015
a(F0.032330036163330078
I205
tp1016
a(F0.030462026596069336
I205
tp1017
a(F0.021471023559570312
I205
tp1018
a(F0.021154165267944336
I205
tp1019
a(F0.031817197799682617
I205
tp1020
a(F0.030557870864868164
I206
tp1021
a(F0.032133102416992188
I206
tp1022
a(F0.030900001525878906
I206
tp1023
a(F0.040315151214599609
I206
tp1024
a(F0.030795097351074219
I206
tp1025
a(F0.030936002731323242
I206
tp1026
a(F0.041393041610717773
I207
tp1027
a(F0.0223388671875
I207
tp1028
a(F0.041253089904785156
I208
tp1029
a(F0.049280166625976562
I208
tp1030
a(F0.03416895866394043
I208
tp1031
a(F0.011570930480957031
I208
tp1032
a(F0.022543907165527344
I209
tp1033
a(F0.053261995315551758
I210
tp1034
a(F0.062721967697143555
I211
tp1035
a(F0.052722930908203125
I211
tp1036
a(F0.042441129684448242
I211
tp1037
a(F0.054437875747680664
I212
tp1038
a(F0.054698944091796875
I212
tp1039
a(F0.066601037979125977
I214
tp1040
a(F0.076539039611816406
I215
tp1041
a(F0.065162181854248047
I215
tp1042
a(F0.065343856811523438
I215
tp1043
a(F0.044746160507202148
I215
tp1044
a(F0.045741081237792969
I215
tp1045
a(F0.055109977722167969
I216
tp1046
a(F0.056307077407836914
I216
tp1047
a(F0.055228948593139648
I216
tp1048
a(F0.055408000946044922
I216
tp1049
a(F0.047132968902587891
I216
tp1050
a(F0.045705080032348633
I216
tp1051
a(F0.044494152069091797
I216
tp1052
a(F0.056826114654541016
I217
tp1053
a(F0.067293882369995117
I218
tp1054
a(F0.068356990814208984
I219
tp1055
a(F0.058173179626464844
I219
tp1056
a(F0.057440996170043945
I219
tp1057
a(F0.057813882827758789
I220
tp1058
a(F0.04835200309753418
I220
tp1059
a(F0.047408103942871094
I220
tp1060
a(F0.059839963912963867
I221
tp1061
a(F0.037070989608764648
I221
tp1062
a(F0.048336029052734375
I221
tp1063
a(F0.046953201293945312
I221
tp1064
a(F0.059813022613525391
I222
tp1065
a(F0.048670053482055664
I223
tp1066
a(F0.048398017883300781
I223
tp1067
a(F0.048265933990478516
I223
tp1068
a(F0.049955844879150391
I223
tp1069
a(F0.048829793930053711
I223
tp1070
a(F0.049659967422485352
I223
tp1071
a(F0.037837028503417969
I223
tp1072
a(F0.036962032318115234
I223
tp1073
a(F0.025774002075195312
I223
tp1074
a(F0.025754928588867188
I223
tp1075
a(F0.026616811752319336
I223
tp1076
a(F0.026807069778442383
I223
tp1077
a(F0.013277053833007812
I223
tp1078
a(F0.026975870132446289
I223
tp1079
a(F0.025804042816162109
I223
tp1080
a(F0.013897895812988281
I223
tp1081
a(F0.013635873794555664
I223
tp1082
a(F0.013758182525634766
I223
tp1083
a(F0.014569997787475586
I223
tp1084
a(F0.013799905776977539
I223
tp1085
a(F0.014496088027954102
I223
tp1086
a(F0.014930009841918945
I223
tp1087
a(F0.049572229385375977
I224
tp1088
a(F0.049674034118652344
I224
tp1089
a(F0.060889959335327148
I224
tp1090
a(F0.060597896575927734
I224
tp1091
a(F0.050174951553344727
I224
tp1092
a(F0.073369979858398438
I224
tp1093
a(F0.060464143753051758
I224
tp1094
a(F0.060710906982421875
I224
tp1095
a(F0.085513114929199219
I225
tp1096
a(F0.086288928985595703
I225
tp1097
a(F0.073618888854980469
I225
tp1098
a(F0.072112798690795898
I225
tp1099
a(F0.073000907897949219
I225
tp1100
a(F0.073982954025268555
I225
tp1101
a(F0.073112010955810547
I225
tp1102
a(F0.060411214828491211
I225
tp1103
a(F0.049897909164428711
I225
tp1104
a(F0.063225030899047852
I225
tp1105
a(F0.074373006820678711
I225
tp1106
a(F0.049727916717529297
I225
tp1107
a(F0.049731016159057617
I225
tp1108
a(F0.038092851638793945
I225
tp1109
a(F0.037540912628173828
I225
tp1110
a(F0.026309967041015625
I225
tp1111
a(F0.037729024887084961
I225
tp1112
a(F0.051580190658569336
I225
tp1113
a(F0.050105094909667969
I225
tp1114
a(F0.061832904815673828
I225
tp1115
a(F0.060570955276489258
I225
tp1116
a(F0.061258077621459961
I225
tp1117
a(F0.061071872711181641
I225
tp1118
a(F0.073662042617797852
I225
tp1119
a(F0.068708896636962891
I225
tp1120
a(F0.050684928894042969
I225
tp1121
a(F0.049691915512084961
I225
tp1122
a(F0.03812098503112793
I225
tp1123
a(F0.063659906387329102
I227
tp1124
a(F0.063424110412597656
I227
tp1125
a(F0.064867019653320312
I228
tp1126
a(F0.028489112854003906
I228
tp1127
a(F0.054378032684326172
I228
tp1128
a(F0.039692878723144531
I228
tp1129
a(F0.051285028457641602
I229
tp1130
a(F0.041364908218383789
I229
tp1131
a(F0.052402973175048828
I229
tp1132
a(F0.066007852554321289
I229
tp1133
a(F0.076833009719848633
I231
tp1134
a(F0.065756082534790039
I231
tp1135
a(F0.066997051239013672
I231
tp1136
a(F0.066571950912475586
I231
tp1137
a(F0.066540956497192383
I231
tp1138
a(F0.065592050552368164
I231
tp1139
a(F0.05469202995300293
I231
tp1140
a(F0.065948009490966797
I231
tp1141
a(F0.079890966415405273
I232
tp1142
a(F0.092145204544067383
I233
tp1143
a(F0.080751895904541016
I234
tp1144
a(F0.067775964736938477
I234
tp1145
a(F0.082109212875366211
I235
tp1146
a(F0.094492912292480469
I235
tp1147
a(F0.10704898834228516
I236
tp1148
a(F0.11008286476135254
I236
tp1149
a(F0.082032918930053711
I236
tp1150
a(F0.069903135299682617
I236
tp1151
a(F0.05558013916015625
I237
tp1152
a(F0.0438079833984375
I237
tp1153
a(F0.043645143508911133
I237
tp1154
a(F0.046146154403686523
I237
tp1155
a(F0.033733129501342773
I237
tp1156
a(F0.016265153884887695
I237
tp1157
a(F0.017215967178344727
I237
tp1158
a(F0.016314983367919922
I237
tp1159
a(F0.015523910522460938
I237
tp1160
a(F0.016307830810546875
I237
tp1161
a(F0.016157865524291992
I237
tp1162
a(F0.016149997711181641
I237
tp1163
a(F0.015617847442626953
I237
tp1164
a(F0.030364036560058594
I238
tp1165
a(F0.044214010238647461
I238
tp1166
a(F0.043455839157104492
I238
tp1167
a(F0.030462980270385742
I238
tp1168
a(F0.044941186904907227
I238
tp1169
a(F0.043866157531738281
I238
tp1170
a(F0.030047893524169922
I238
tp1171
a(F0.030273914337158203
I238
tp1172
a(F0.043406009674072266
I238
tp1173
a(F0.044186115264892578
I238
tp1174
a(F0.056627035140991211
I238
tp1175
a(F0.043707847595214844
I238
tp1176
a(F0.030642986297607422
I238
tp1177
a(F0.056954145431518555
I238
tp1178
a(F0.057456016540527344
I238
tp1179
a(F0.057954072952270508
I238
tp1180
a(F0.05686187744140625
I238
tp1181
a(F0.043871879577636719
I238
tp1182
a(F0.058490991592407227
I238
tp1183
a(F0.069845914840698242
I238
tp1184
a(F0.071633815765380859
I238
tp1185
a(F0.070591211318969727
I238
tp1186
a(F0.070582866668701172
I238
tp1187
a(F0.059144973754882812
I238
tp1188
a(F0.043751001358032227
I238
tp1189
a(F0.057247161865234375
I238
tp1190
a(F0.056646108627319336
I238
tp1191
a(F0.056829929351806641
I238
tp1192
a(F0.083454132080078125
I238
tp1193
a(F0.071002960205078125
I238
tp1194
a(F0.070502042770385742
I238
tp1195
a(F0.070395946502685547
I238
tp1196
a(F0.074583053588867188
I238
tp1197
a(F0.071271896362304688
I238
tp1198
a(F0.085129976272583008
I238
tp1199
a(F0.070540904998779297
I238
tp1200
a(F0.069962024688720703
I238
tp1201
a(F0.043826103210449219
I238
tp1202
a(F0.046592950820922852
I238
tp1203
a(F0.044440031051635742
I238
tp1204
a(F0.043837785720825195
I238
tp1205
a(F0.043754100799560547
I238
tp1206
a(F0.043642997741699219
I238
tp1207
a(F0.043489933013916016
I238
tp1208
a(F0.043817043304443359
I238
tp1209
a(F0.058284997940063477
I238
tp1210
a(F0.070710897445678711
I238
tp1211
a(F0.056964874267578125
I238
tp1212
a(F0.05716395378112793
I238
tp1213
a(F0.070405006408691406
I238
tp1214
a(F0.085865020751953125
I238
tp1215
a(F0.071000099182128906
I238
tp1216
a(F0.07048797607421875
I238
tp1217
a(F0.056505918502807617
I238
tp1218
a(F0.057615995407104492
I238
tp1219
a(F0.043873071670532227
I238
tp1220
a(F0.044599771499633789
I238
tp1221
a(F0.058032035827636719
I239
tp1222
a(F0.044745922088623047
I239
tp1223
a(F0.05708003044128418
I240
tp1224
a(F0.058801889419555664
I240
tp1225
a(F0.072472095489501953
I241
tp1226
a(F0.074574947357177734
I242
tp1227
a(F0.07508087158203125
I242
tp1228
a(F0.073982954025268555
I242
tp1229
a(F0.073605060577392578
I242
tp1230
a(F0.077592849731445312
I242
tp1231
a(F0.061356067657470703
I242
tp1232
a(F0.059486150741577148
I242
tp1233
a(F0.045638084411621094
I242
tp1234
a(F0.059852838516235352
I243
tp1235
a(F0.06052398681640625
I243
tp1236
a(F0.069862127304077148
I243
tp1237
a(F0.078140974044799805
I244
tp1238
a(F0.060785055160522461
I244
tp1239
a(F0.074965000152587891
I244
tp1240
a(F0.074326038360595703
I244
tp1241
a(F0.061890125274658203
I244
tp1242
a(F0.061769962310791016
I245
tp1243
a(F0.06193995475769043
I245
tp1244
a(F0.076627969741821289
I246
tp1245
a(F0.076763153076171875
I246
tp1246
a(F0.078286886215209961
I246
tp1247
a(F0.06220698356628418
I246
tp1248
a(F0.07693791389465332
I247
tp1249
a(F0.062633991241455078
I247
tp1250
a(F0.079055070877075195
I247
tp1251
a(F0.063389778137207031
I247
tp1252
a(F0.077868938446044922
I248
tp1253
a(F0.078215122222900391
I248
tp1254
a(F0.063123941421508789
I248
tp1255
a(F0.066143035888671875
I248
tp1256
a(F0.062798023223876953
I248
tp1257
a(F0.063402175903320312
I248
tp1258
a(F0.094942092895507812
I250
tp1259
a(F0.082050085067749023
I250
tp1260
a(F0.081194877624511719
I250
tp1261
a(F0.079248905181884766
I250
tp1262
a(F0.064550161361694336
I250
tp1263
a(F0.080796003341674805
I251
tp1264
a(F0.082715034484863281
I251
tp1265
a(F0.096909999847412109
I252
tp1266
a(F0.081478118896484375
I252
tp1267
a(F0.081769943237304688
I252
tp1268
a(F0.082615137100219727
I252
tp1269
a(F0.065657854080200195
I252
tp1270
a(F0.082671880722045898
I253
tp1271
a(F0.099866867065429688
I254
tp1272
a(F0.097885847091674805
I254
tp1273
a(F0.098834991455078125
I254
tp1274
a(F0.082292079925537109
I254
tp1275
a(F0.083471059799194336
I254
tp1276
a(F0.082863807678222656
I254
tp1277
a(F0.069337129592895508
I255
tp1278
a(F0.084248065948486328
I255
tp1279
a(F0.084431886672973633
I255
tp1280
a(F0.084484100341796875
I255
tp1281
a(F0.068519115447998047
I255
tp1282
a(F0.083260059356689453
I255
tp1283
a(F0.084927082061767578
I256
tp1284
a(F0.053378105163574219
I256
tp1285
a(F0.071254968643188477
I256
tp1286
a(F0.068311929702758789
I256
tp1287
a(F0.085340023040771484
I257
tp1288
a(F0.087958097457885742
I257
tp1289
a(F0.085023880004882812
I257
tp1290
a(F0.068655014038085938
I257
tp1291
a(F0.05272984504699707
I257
tp1292
a(F0.052709102630615234
I257
tp1293
a(F0.05384516716003418
I257
tp1294
a(F0.069036006927490234
I258
tp1295
a(F0.070122957229614258
I259
tp1296
a(F0.087093114852905273
I259
tp1297
a(F0.071238040924072266
I259
tp1298
a(F0.087210893630981445
I259
tp1299
a(F0.070284128189086914
I260
tp1300
a(F0.087960958480834961
I260
tp1301
a(F0.092443943023681641
I260
tp1302
a(F0.088949918746948242
I260
tp1303
a(F0.070498943328857422
I260
tp1304
a(F0.071280002593994141
I260
tp1305
a(F0.089961051940917969
I261
tp1306
a(F0.073538780212402344
I261
tp1307
a(F0.08866119384765625
I262
tp1308
a(F0.089606046676635742
I262
tp1309
a(F0.08973383903503418
I262
tp1310
a(F0.10870981216430664
I263
tp1311
a(F0.10806584358215332
I264
tp1312
a(F0.090529918670654297
I264
tp1313
a(F0.11046695709228516
I265
tp1314
a(F0.092231035232543945
I265
tp1315
a(F0.092722177505493164
I265
tp1316
a(F0.10941004753112793
I265
tp1317
a(F0.12828993797302246
I266
tp1318
a(F0.093614101409912109
I266
tp1319
a(F0.11224079132080078
I267
tp1320
a(F0.13745284080505371
I268
tp1321
a(F0.11396479606628418
I268
tp1322
a(F0.11533403396606445
I268
tp1323
a(F0.13219094276428223
I269
tp1324
a(F0.11407017707824707
I269
tp1325
a(F0.11393284797668457
I269
tp1326
a(F0.11405110359191895
I270
tp1327
a(F0.11619997024536133
I270
tp1328
a(F0.09681391716003418
I270
tp1329
a(F0.095454931259155273
I270
tp1330
a(F0.1157989501953125
I271
tp1331
a(F0.097107172012329102
I271
tp1332
a(F0.096076011657714844
I271
tp1333
a(F0.11625790596008301
I272
tp1334
a(F0.098163843154907227
I272
tp1335
a(F0.11731386184692383
I272
tp1336
a(F0.11711621284484863
I273
tp1337
a(F0.099505901336669922
I273
tp1338
a(F0.07836604118347168
I273
tp1339
a(F0.098500967025756836
I273
tp1340
a(F0.13739609718322754
I275
tp1341
a(F0.14325690269470215
I275
tp1342
a(F0.11964583396911621
I275
tp1343
a(F0.10038518905639648
I275
tp1344
a(F0.11976504325866699
I275
tp1345
a(F0.1000359058380127
I275
tp1346
a(F0.10041999816894531
I275
tp1347
a(F0.10576796531677246
I275
tp1348
a(F0.10040903091430664
I275
tp1349
a(F0.10098409652709961
I276
tp1350
a(F0.082238912582397461
I276
tp1351
a(F0.082263946533203125
I276
tp1352
a(F0.080770969390869141
I276
tp1353
a(F0.081029891967773438
I276
tp1354
a(F0.062057018280029297
I276
tp1355
a(F0.042455911636352539
I276
tp1356
a(F0.042553901672363281
I276
tp1357
a(F0.043727874755859375
I276
tp1358
a(F0.043585062026977539
I276
tp1359
a(F0.042274951934814453
I276
tp1360
a(F0.022900819778442383
I276
tp1361
a(F0.022419929504394531
I276
tp1362
a(F0.042767047882080078
I276
tp1363
a(F0.022585868835449219
I276
tp1364
a(F0.022891044616699219
I276
tp1365
a(F0.022589921951293945
I276
tp1366
a(F0.0024809837341308594
I276
tp1367
a(F0.042071104049682617
I276
tp1368
a(F0.061669111251831055
I276
tp1369
a(F0.041965007781982422
I276
tp1370
a(F0.08108210563659668
I276
tp1371
a(F0.081050872802734375
I276
tp1372
a(F0.12146401405334473
I276
tp1373
a(F0.12050199508666992
I276
tp1374
a(F0.10196495056152344
I276
tp1375
a(F0.12133598327636719
I276
tp1376
a(F0.10008406639099121
I276
tp1377
a(F0.10228800773620605
I276
tp1378
a(F0.10202312469482422
I276
tp1379
a(F0.10144996643066406
I276
tp1380
a(F0.10145711898803711
I276
tp1381
a(F0.081541061401367188
I276
tp1382
a(F0.12037491798400879
I276
tp1383
a(F0.1199951171875
I276
tp1384
a(F0.098404884338378906
I276
tp1385
a(F0.10779500007629395
I276
tp1386
a(F0.12193989753723145
I277
tp1387
a(F0.12135601043701172
I277
tp1388
a(F0.11970710754394531
I277
tp1389
a(F0.14151310920715332
I277
tp1390
a(F0.16029095649719238
I277
tp1391
a(F0.14079904556274414
I277
tp1392
a(F0.14225888252258301
I277
tp1393
a(F0.12136101722717285
I277
tp1394
a(F0.12328100204467773
I277
tp1395
a(F0.12073206901550293
I277
tp1396
a(F0.12143087387084961
I277
tp1397
a(F0.12127804756164551
I278
tp1398
a(F0.14179611206054688
I278
tp1399
a(F0.16174912452697754
I279
tp1400
a(F0.16507387161254883
I279
tp1401
a(F0.14452505111694336
I279
tp1402
a(F0.16486191749572754
I280
tp1403
a(F0.10635590553283691
I282
tp1404
a(F0.12657999992370605
I282
tp1405
a(F0.1245729923248291
I282
tp1406
a(F0.1257941722869873
I282
tp1407
a(F0.1275029182434082
I282
tp1408
a(F0.12790298461914062
I282
tp1409
a(F0.12822389602661133
I282
tp1410
a(F0.10558009147644043
I282
tp1411
a(F0.086915016174316406
I282
tp1412
a(F0.10820388793945312
I283
tp1413
a(F0.10657501220703125
I284
tp1414
a(F0.10684919357299805
I285
tp1415
a(F0.12970590591430664
I285
tp1416
a(F0.10820603370666504
I285
tp1417
a(F0.13135313987731934
I285
tp1418
a(F0.14999508857727051
I286
tp1419
a(F0.10851120948791504
I287
tp1420
a(F0.15337491035461426
I287
tp1421
a(F0.1524958610534668
I287
tp1422
a(F0.15259504318237305
I288
tp1423
a(F0.13483810424804688
I289
tp1424
a(F0.13453888893127441
I290
tp1425
a(F0.13502979278564453
I290
tp1426
a(F0.13300204277038574
I290
tp1427
a(F0.11323308944702148
I290
tp1428
a(F0.11231303215026855
I290
tp1429
a(F0.11198806762695312
I290
tp1430
a(F0.092656135559082031
I290
tp1431
a(F0.09101414680480957
I290
tp1432
a(F0.089562892913818359
I290
tp1433
a(F0.068397998809814453
I290
tp1434
a(F0.069355010986328125
I290
tp1435
a(F0.091552019119262695
I290
tp1436
a(F0.068794012069702148
I290
tp1437
a(F0.090094089508056641
I291
tp1438
a(F0.069630146026611328
I291
tp1439
a(F0.069365978240966797
I291
tp1440
a(F0.047245025634765625
I291
tp1441
a(F0.046674966812133789
I291
tp1442
a(F0.046641826629638672
I291
tp1443
a(F0.049489021301269531
I291
tp1444
a(F0.049030065536499023
I291
tp1445
a(F0.024796962738037109
I291
tp1446
a(F0.025509119033813477
I291
tp1447
a(F0.026375055313110352
I291
tp1448
a(F0.02526092529296875
I291
tp1449
a(F0.0025491714477539062
I291
tp1450
a(F0.0024011135101318359
I291
tp1451
a(F0.0024170875549316406
I291
tp1452
a(F0.047313928604125977
I291
tp1453
a(F0.048407793045043945
I291
tp1454
a(F0.069152116775512695
I291
tp1455
a(F0.046937942504882812
I291
tp1456
a(F0.070327043533325195
I291
tp1457
a(F0.091995954513549805
I291
tp1458
a(F0.11284708976745605
I291
tp1459
a(F0.068789958953857422
I291
tp1460
a(F0.069358110427856445
I291
tp1461
a(F0.091627836227416992
I291
tp1462
a(F0.091732978820800781
I291
tp1463
a(F0.11486196517944336
I291
tp1464
a(F0.069411993026733398
I291
tp1465
a(F0.069499969482421875
I291
tp1466
a(F0.046999931335449219
I291
tp1467
a(F0.046973943710327148
I291
tp1468
a(F0.070741891860961914
I291
tp1469
a(F0.069736957550048828
I291
tp1470
a(F0.068444013595581055
I291
tp1471
a(F0.069354057312011719
I291
tp1472
a(F0.06856083869934082
I291
tp1473
a(F0.025132894515991211
I291
tp1474
a(F0.069487094879150391
I291
tp1475
a(F0.069384098052978516
I291
tp1476
a(F0.047837972640991211
I291
tp1477
a(F0.070199966430664062
I291
tp1478
a(F0.090883016586303711
I291
tp1479
a(F0.091563940048217773
I291
tp1480
a(F0.11287617683410645
I291
tp1481
a(F0.11298084259033203
I291
tp1482
a(F0.091282129287719727
I291
tp1483
a(F0.092161893844604492
I291
tp1484
a(F0.068842887878417969
I291
tp1485
a(F0.068332910537719727
I291
tp1486
a(F0.068846940994262695
I291
tp1487
a(F0.070369958877563477
I291
tp1488
a(F0.069336891174316406
I291
tp1489
a(F0.090663909912109375
I291
tp1490
a(F0.068580150604248047
I291
tp1491
a(F0.070484161376953125
I291
tp1492
a(F0.069012165069580078
I291
tp1493
a(F0.09035801887512207
I291
tp1494
a(F0.090861082077026367
I291
tp1495
a(F0.092689990997314453
I291
tp1496
a(F0.068704128265380859
I291
tp1497
a(F0.068941116333007812
I291
tp1498
a(F0.069214820861816406
I291
tp1499
a(F0.091758012771606445
I292
tp1500
a(F0.070020914077758789
I292
tp1501
a(F0.0692138671875
I292
tp1502
a(F0.071287155151367188
I292
tp1503
a(F0.047837972640991211
I292
tp1504
a(F0.047937870025634766
I292
tp1505
a(F0.069399118423461914
I293
tp1506
a(F0.070972919464111328
I293
tp1507
a(F0.093268156051635742
I294
tp1508
a(F0.093620061874389648
I294
tp1509
a(F0.095587015151977539
I294
tp1510
a(F0.072201013565063477
I294
tp1511
a(F0.070770978927612305
I294
tp1512
a(F0.070478916168212891
I294
tp1513
a(F0.11603212356567383
I296
tp1514
a(F0.09451603889465332
I296
tp1515
a(F0.11798381805419922
I296
tp1516
a(F0.12098097801208496
I296
tp1517
a(F0.11989402770996094
I296
tp1518
a(F0.11882996559143066
I296
tp1519
a(F0.097743988037109375
I296
tp1520
a(F0.095758914947509766
I296
tp1521
a(F0.11714506149291992
I297
tp1522
a(F0.11916184425354004
I297
tp1523
a(F0.096696138381958008
I297
tp1524
a(F0.072848081588745117
I297
tp1525
a(F0.096055984497070312
I298
tp1526
a(F0.12232184410095215
I299
tp1527
a(F0.12573099136352539
I299
tp1528
a(F0.12595987319946289
I299
tp1529
a(F0.12214088439941406
I299
tp1530
a(F0.14946413040161133
I300
tp1531
a(F0.12350797653198242
I300
tp1532
a(F0.12172889709472656
I300
tp1533
a(F0.12089204788208008
I301
tp1534
a(F0.097069025039672852
I301
tp1535
a(F0.12291383743286133
I301
tp1536
a(F0.14383411407470703
I302
tp1537
a(F0.095088958740234375
I302
tp1538
a(F0.12143611907958984
I302
tp1539
a(F0.11958193778991699
I302
tp1540
a(F0.12249112129211426
I302
tp1541
a(F0.096515178680419922
I302
tp1542
a(F0.12417006492614746
I303
tp1543
a(F0.12288999557495117
I303
tp1544
a(F0.1023859977722168
I303
tp1545
a(F0.13424801826477051
I304
tp1546
a(F0.14928221702575684
I305
tp1547
a(F0.14808416366577148
I305
tp1548
a(F0.12476205825805664
I305
tp1549
a(F0.12409496307373047
I305
tp1550
a(F0.12227201461791992
I305
tp1551
a(F0.12677288055419922
I305
tp1552
a(F0.12548708915710449
I305
tp1553
a(F0.15321803092956543
I307
tp1554
a(F0.1534419059753418
I307
tp1555
a(F0.12826395034790039
I307
tp1556
a(F0.12588000297546387
I308
tp1557
a(F0.1522979736328125
I309
tp1558
a(F0.17707681655883789
I309
tp1559
a(F0.17677903175354004
I309
tp1560
a(F0.17855191230773926
I309
tp1561
a(F0.15016913414001465
I309
tp1562
a(F0.15211915969848633
I309
tp1563
a(F0.15204095840454102
I309
tp1564
a(F0.12536501884460449
I309
tp1565
a(F0.15292906761169434
I310
tp1566
a(F0.12901592254638672
I311
tp1567
a(F0.15473484992980957
I311
tp1568
a(F0.12726593017578125
I311
tp1569
a(F0.15532588958740234
I311
tp1570
a(F0.15484213829040527
I311
tp1571
a(F0.1553199291229248
I311
tp1572
a(F0.17734384536743164
I312
tp1573
a(F0.13113903999328613
I312
tp1574
a(F0.15575695037841797
I313
tp1575
a(F0.15645194053649902
I313
tp1576
a(F0.15365099906921387
I313
tp1577
a(F0.15808200836181641
I314
tp1578
a(F0.1326289176940918
I314
tp1579
a(F0.13219690322875977
I314
tp1580
a(F0.12946796417236328
I314
tp1581
a(F0.13151693344116211
I314
tp1582
a(F0.18441390991210938
I316
tp1583
a(F0.1314549446105957
I316
tp1584
a(F0.1359410285949707
I316
tp1585
a(F0.13375210762023926
I316
tp1586
a(F0.13171601295471191
I316
tp1587
a(F0.13516092300415039
I316
tp1588
a(F0.13377690315246582
I316
tp1589
a(F0.16044020652770996
I318
tp1590
a(F0.17099308967590332
I318
tp1591
a(F0.1631319522857666
I318
tp1592
a(F0.10974001884460449
I318
tp1593
a(F0.16280508041381836
I319
tp1594
a(F0.16061592102050781
I319
tp1595
a(F0.16296887397766113
I319
tp1596
a(F0.13694500923156738
I319
tp1597
a(F0.13685822486877441
I319
tp1598
a(F0.13439488410949707
I319
tp1599
a(F0.16721796989440918
I321
tp1600
a(F0.17068886756896973
I321
tp1601
a(F0.13855314254760742
I321
tp1602
a(F0.1098020076751709
I321
tp1603
a(F0.16589999198913574
I322
tp1604
a(F0.16773009300231934
I323
tp1605
a(F0.22351789474487305
I324
tp1606
a(F0.25295591354370117
I325
tp1607
a(F0.17102503776550293
I325
tp1608
a(F0.17131710052490234
I325
tp1609
a(F0.16985607147216797
I325
tp1610
a(F0.19730997085571289
I326
tp1611
a(F0.19943904876708984
I327
tp1612
a(F0.14241886138916016
I327
tp1613
a(F0.14466309547424316
I328
tp1614
a(F0.1172940731048584
I328
tp1615
a(F0.11446714401245117
I329
tp1616
a(F0.089497089385986328
I329
tp1617
a(F0.059454202651977539
I329
tp1618
a(F0.11781191825866699
I330
tp1619
a(F0.14470005035400391
I331
tp1620
a(F0.14815783500671387
I331
tp1621
a(F0.060198068618774414
I331
tp1622
a(F0.062328100204467773
I331
tp1623
a(F0.060469150543212891
I331
tp1624
a(F0.060425043106079102
I331
tp1625
a(F0.062458992004394531
I331
tp1626
a(F0.088387012481689453
I333
tp1627
a(F0.12022900581359863
I334
tp1628
a(F0.11975789070129395
I334
tp1629
a(F0.12489604949951172
I334
tp1630
a(F0.091583967208862305
I334
tp1631
a(F0.09679102897644043
I334
tp1632
a(F0.0625
I334
tp1633
a(F0.093036174774169922
I335
tp1634
a(F0.093188047409057617
I335
tp1635
a(F0.092018842697143555
I335
tp1636
a(F0.099351882934570312
I335
tp1637
a(F0.093080043792724609
I335
tp1638
a(F0.069135189056396484
I335
tp1639
a(F0.12204694747924805
I336
tp1640
a(F0.12605786323547363
I336
tp1641
a(F0.09235692024230957
I336
tp1642
a(F0.069535017013549805
I336
tp1643
a(F0.063465118408203125
I336
tp1644
a(F0.062371969223022461
I336
tp1645
a(F0.064960002899169922
I336
tp1646
a(F0.062521934509277344
I336
tp1647
a(F0.063586950302124023
I336
tp1648
a(F0.066617965698242188
I336
tp1649
a(F0.095953941345214844
I337
tp1650
a(F0.063539028167724609
I337
tp1651
a(F0.067800998687744141
I337
tp1652
a(F0.093003034591674805
I338
tp1653
a(F0.094979047775268555
I338
tp1654
a(F0.063402891159057617
I338
tp1655
a(F0.092942953109741211
I339
tp1656
a(F0.096826076507568359
I339
tp1657
a(F0.094264030456542969
I339
tp1658
a(F0.098181962966918945
I339
tp1659
a(F0.096065998077392578
I339
tp1660
a(F0.098065853118896484
I339
tp1661
a(F0.095606088638305664
I339
tp1662
a(F0.076216936111450195
I339
tp1663
a(F0.035629987716674805
I339
tp1664
a(F0.048394918441772461
I339
tp1665
a(F0.035980939865112305
I339
tp1666
a(F0.039613008499145508
I339
tp1667
a(F0.037487030029296875
I339
tp1668
a(F0.036020040512084961
I339
tp1669
a(F0.0031180381774902344
I339
tp1670
a(F0.0037901401519775391
I339
tp1671
a(F0.0196380615234375
I339
tp1672
a(F0.03595280647277832
I340
tp1673
a(F0.046634912490844727
I340
tp1674
a(F0.10048580169677734
I340
tp1675
a(F0.09738612174987793
I340
tp1676
a(F0.13282585144042969
I340
tp1677
a(F0.16630911827087402
I340
tp1678
a(F0.13223004341125488
I340
tp1679
a(F0.12807893753051758
I340
tp1680
a(F0.13128185272216797
I340
tp1681
a(F0.098440170288085938
I340
tp1682
a(F0.12483406066894531
I340
tp1683
a(F0.10272598266601562
I340
tp1684
a(F0.10570192337036133
I340
tp1685
a(F0.069089889526367188
I340
tp1686
a(F0.10342192649841309
I340
tp1687
a(F0.067108869552612305
I340
tp1688
a(F0.034904003143310547
I340
tp1689
a(F0.040395021438598633
I340
tp1690
a(F0.035341978073120117
I340
tp1691
a(F0.035920858383178711
I340
tp1692
a(F0.034455060958862305
I340
tp1693
a(F0.033088922500610352
I340
tp1694
a(F0.033258914947509766
I340
tp1695
a(F0.0655670166015625
I340
tp1696
a(F0.094478130340576172
I340
tp1697
a(F0.12694692611694336
I341
tp1698
a(F0.12461590766906738
I341
tp1699
a(F0.14059185981750488
I342
tp1700
a(F0.101654052734375
I342
tp1701
a(F0.13250303268432617
I342
tp1702
a(F0.17234587669372559
I342
tp1703
a(F0.16188192367553711
I342
tp1704
a(F0.19093990325927734
I342
tp1705
a(F0.22102904319763184
I343
tp1706
a(F0.19195389747619629
I343
tp1707
a(F0.19129300117492676
I343
tp1708
a(F0.22129201889038086
I344
tp1709
a(F0.22167086601257324
I344
tp1710
a(F0.22243404388427734
I344
tp1711
a(F0.19211483001708984
I344
tp1712
a(F0.19695782661437988
I344
tp1713
a(F0.1305689811706543
I344
tp1714
a(F0.16324090957641602
I345
tp1715
a(F0.13824009895324707
I345
tp1716
a(F0.13701105117797852
I345
tp1717
a(F0.14159703254699707
I345
tp1718
a(F0.1063530445098877
I345
tp1719
a(F0.10142207145690918
I345
tp1720
a(F0.097305774688720703
I345
tp1721
a(F0.1299591064453125
I346
tp1722
a(F0.12939190864562988
I346
tp1723
a(F0.098884820938110352
I346
tp1724
a(F0.099049091339111328
I346
tp1725
a(F0.099300146102905273
I346
tp1726
a(F0.066582918167114258
I346
tp1727
a(F0.068667888641357422
I346
tp1728
a(F0.066077947616577148
I346
tp1729
a(F0.066608905792236328
I346
tp1730
a(F0.071007013320922852
I346
tp1731
a(F0.087979793548583984
I346
tp1732
a(F0.1010899543762207
I347
tp1733
a(F0.066331863403320312
I347
tp1734
a(F0.0663299560546875
I347
tp1735
a(F0.068868875503540039
I347
tp1736
a(F0.097681045532226562
I348
tp1737
a(F0.10389018058776855
I348
tp1738
a(F0.1468510627746582
I349
tp1739
a(F0.13294792175292969
I349
tp1740
a(F0.099760055541992188
I349
tp1741
a(F0.073102951049804688
I349
tp1742
a(F0.073676109313964844
I349
tp1743
a(F0.072777986526489258
I349
tp1744
a(F0.067995071411132812
I349
tp1745
a(F0.066954135894775391
I349
tp1746
a(F0.069442033767700195
I349
tp1747
a(F0.066510200500488281
I349
tp1748
a(F0.035336017608642578
I349
tp1749
a(F0.035128116607666016
I349
tp1750
a(F0.034945011138916016
I349
tp1751
a(F0.0029730796813964844
I349
tp1752
a(F0.0038831233978271484
I349
tp1753
a(F0.0028159618377685547
I349
tp1754
a(F0.036361932754516602
I349
tp1755
a(F0.067518949508666992
I349
tp1756
a(F0.067451000213623047
I349
tp1757
a(F0.1007080078125
I349
tp1758
a(F0.098997116088867188
I349
tp1759
a(F0.1008141040802002
I349
tp1760
a(F0.099181175231933594
I349
tp1761
a(F0.10069417953491211
I349
tp1762
a(F0.099537134170532227
I349
tp1763
a(F0.069277048110961914
I349
tp1764
a(F0.066807985305786133
I349
tp1765
a(F0.067072153091430664
I349
tp1766
a(F0.069000959396362305
I349
tp1767
a(F0.09917902946472168
I349
tp1768
a(F0.10051512718200684
I349
tp1769
a(F0.13069295883178711
I349
tp1770
a(F0.13609504699707031
I349
tp1771
a(F0.17758488655090332
I349
tp1772
a(F0.13366603851318359
I349
tp1773
a(F0.19681310653686523
I349
tp1774
a(F0.13137507438659668
I349
tp1775
a(F0.13260006904602051
I349
tp1776
a(F0.099112033843994141
I349
tp1777
a(F0.1027379035949707
I349
tp1778
a(F0.17317795753479004
I349
tp1779
a(F0.16982197761535645
I349
tp1780
a(F0.16268086433410645
I349
tp1781
a(F0.16516709327697754
I349
tp1782
a(F0.1967470645904541
I349
tp1783
a(F0.22924709320068359
I349
tp1784
a(F0.16497588157653809
I349
tp1785
a(F0.22853302955627441
I349
tp1786
a(F0.13376402854919434
I349
tp1787
a(F0.13300108909606934
I349
tp1788
a(F0.099076986312866211
I349
tp1789
a(F0.10103297233581543
I349
tp1790
a(F0.099091053009033203
I349
tp1791
a(F0.10114598274230957
I349
tp1792
a(F0.1004338264465332
I349
tp1793
a(F0.10218191146850586
I349
tp1794
a(F0.10028290748596191
I349
tp1795
a(F0.10243010520935059
I349
tp1796
a(F0.10014605522155762
I349
tp1797
a(F0.13318490982055664
I350
tp1798
a(F0.16669607162475586
I351
tp1799
a(F0.16713786125183105
I351
tp1800
a(F0.20167708396911621
I351
tp1801
a(F0.16909289360046387
I351
tp1802
a(F0.16976213455200195
I351
tp1803
a(F0.20145201683044434
I351
tp1804
a(F0.2014009952545166
I351
tp1805
a(F0.20122218132019043
I351
tp1806
a(F0.20142197608947754
I351
tp1807
a(F0.16881203651428223
I351
tp1808
a(F0.16775894165039062
I352
tp1809
a(F0.17003703117370605
I352
tp1810
a(F0.13499093055725098
I352
tp1811
a(F0.16940808296203613
I352
tp1812
a(F0.23494911193847656
I354
tp1813
a(F0.24011397361755371
I354
tp1814
a(F0.23844289779663086
I354
tp1815
a(F0.23862814903259277
I354
tp1816
a(F0.17412090301513672
I354
tp1817
a(F0.17206501960754395
I354
tp1818
a(F0.20639395713806152
I355
tp1819
a(F0.20586299896240234
I355
tp1820
a(F0.17207098007202148
I355
tp1821
a(F0.20786285400390625
I356
tp1822
a(F0.17311906814575195
I356
tp1823
a(F0.17531204223632812
I356
tp1824
a(F0.1737978458404541
I356
tp1825
a(F0.20663905143737793
I357
tp1826
a(F0.20883798599243164
I357
tp1827
a(F0.17551398277282715
I357
tp1828
a(F0.17467498779296875
I357
tp1829
a(F0.20686697959899902
I358
tp1830
a(F0.20908284187316895
I358
tp1831
a(F0.17528390884399414
I358
tp1832
a(F0.141326904296875
I358
tp1833
a(F0.13983798027038574
I358
tp1834
a(F0.14182591438293457
I358
tp1835
a(F0.20892095565795898
I360
tp1836
a(F0.21384000778198242
I360
tp1837
a(F0.1791081428527832
I360
tp1838
a(F0.1777348518371582
I360
tp1839
a(F0.17989110946655273
I360
tp1840
a(F0.17895007133483887
I360
tp1841
a(F0.24864721298217773
I362
tp1842
a(F0.2155148983001709
I362
tp1843
a(F0.21452903747558594
I362
tp1844
a(F0.21466708183288574
I362
tp1845
a(F0.21462202072143555
I362
tp1846
a(F0.14618086814880371
I362
tp1847
a(F0.14691805839538574
I362
tp1848
a(F0.14466094970703125
I362
tp1849
a(F0.2174530029296875
I364
tp1850
a(F0.22183918952941895
I364
tp1851
a(F0.25201988220214844
I365
tp1852
a(F0.28823494911193848
I366
tp1853
a(F0.26081490516662598
I366
tp1854
a(F0.1820530891418457
I366
tp1855
a(F0.22155094146728516
I366
tp1856
a(F0.22231197357177734
I366
tp1857
a(F0.22163796424865723
I366
tp1858
a(F0.22072887420654297
I366
tp1859
a(F0.2192380428314209
I366
tp1860
a(F0.18365597724914551
I366
tp1861
a(F0.14795088768005371
I366
tp1862
a(F0.1819150447845459
I367
tp1863
a(F0.22219514846801758
I368
tp1864
a(F0.2215878963470459
I368
tp1865
a(F0.22157621383666992
I368
tp1866
a(F0.25852799415588379
I370
tp1867
a(F0.2245020866394043
I370
tp1868
a(F0.18880891799926758
I370
tp1869
a(F0.22352910041809082
I370
tp1870
a(F0.18999600410461426
I370
tp1871
a(F0.15290498733520508
I370
tp1872
a(F0.15163087844848633
I370
tp1873
a(F0.18633913993835449
I371
tp1874
a(F0.18689990043640137
I371
tp1875
a(F0.2242891788482666
I372
tp1876
a(F0.18898701667785645
I372
tp1877
a(F0.22536706924438477
I372
tp1878
a(F0.26279091835021973
I373
tp1879
a(F0.3401789665222168
I375
tp1880
a(F0.3056340217590332
I375
tp1881
a(F0.27092313766479492
I375
tp1882
a(F0.34404897689819336
I377
tp1883
a(F0.27097177505493164
I377
tp1884
a(F0.27004384994506836
I378
tp1885
a(F0.23412084579467773
I379
tp1886
a(F0.27532601356506348
I380
tp1887
a(F0.35208487510681152
I382
tp1888
a(F0.24119019508361816
I382
tp1889
a(F0.19884705543518066
I382
tp1890
a(F0.19958901405334473
I382
tp1891
a(F0.16072821617126465
I382
tp1892
a(F0.20294189453125
I382
tp1893
a(F0.2120659351348877
I382
tp1894
a(F0.12757396697998047
I382
tp1895
a(F0.12442898750305176
I382
tp1896
a(F0.11942291259765625
I382
tp1897
a(F0.083170890808105469
I382
tp1898
a(F0.081037998199462891
I382
tp1899
a(F0.081289052963256836
I382
tp1900
a(F0.083295106887817383
I382
tp1901
a(F0.081181049346923828
I382
tp1902
a(F0.12352490425109863
I382
tp1903
a(F0.081622838973999023
I382
tp1904
a(F0.1224520206451416
I383
tp1905
a(F0.20250105857849121
I385
tp1906
a(F0.21062302589416504
I387
tp1907
a(F0.25678300857543945
I388
tp1908
a(F0.17437291145324707
I388
tp1909
a(F0.2078399658203125
I388
tp1910
a(F0.16600608825683594
I388
tp1911
a(F0.16602921485900879
I388
tp1912
a(F0.24595999717712402
I389
tp1913
a(F0.16696882247924805
I389
tp1914
a(F0.16667413711547852
I389
tp1915
a(F0.16445612907409668
I389
tp1916
a(F0.16666698455810547
I389
tp1917
a(F0.16658592224121094
I389
tp1918
a(F0.16683197021484375
I389
tp1919
a(F0.16701483726501465
I389
tp1920
a(F0.16742491722106934
I389
tp1921
a(F0.085588932037353516
I389
tp1922
a(F0.085669040679931641
I389
tp1923
a(F0.088090896606445312
I389
tp1924
a(F0.085340976715087891
I389
tp1925
a(F0.087913990020751953
I389
tp1926
a(F0.085270881652832031
I389
tp1927
a(F0.045321941375732422
I389
tp1928
a(F0.0032269954681396484
I389
tp1929
a(F0.0030851364135742188
I389
tp1930
a(F0.0030789375305175781
I389
tp1931
a(F0.0031349658966064453
I389
tp1932
a(F0.0033040046691894531
I389
tp1933
a(F0.0031669139862060547
I389
tp1934
a(F0.0031468868255615234
I389
tp1935
a(F0.0042438507080078125
I389
tp1936
a(F0.0042109489440917969
I389
tp1937
a(F0.045289039611816406
I389
tp1938
a(F0.12547898292541504
I389
tp1939
a(F0.12703704833984375
I389
tp1940
a(F0.12784218788146973
I389
tp1941
a(F0.12407803535461426
I389
tp1942
a(F0.16641688346862793
I389
tp1943
a(F0.16730713844299316
I389
tp1944
a(F0.12811517715454102
I389
tp1945
a(F0.16620802879333496
I389
tp1946
a(F0.16664385795593262
I389
tp1947
a(F0.20634198188781738
I389
tp1948
a(F0.24845194816589355
I389
tp1949
a(F0.16760015487670898
I389
tp1950
a(F0.20849490165710449
I389
tp1951
a(F0.16709589958190918
I389
tp1952
a(F0.12612700462341309
I389
tp1953
a(F0.1242520809173584
I389
tp1954
a(F0.12845206260681152
I389
tp1955
a(F0.16675186157226562
I389
tp1956
a(F0.12699699401855469
I389
tp1957
a(F0.16479802131652832
I389
tp1958
a(F0.16815900802612305
I389
tp1959
a(F0.12767910957336426
I389
tp1960
a(F0.16664314270019531
I389
tp1961
a(F0.16615581512451172
I389
tp1962
a(F0.16819190979003906
I389
tp1963
a(F0.24904608726501465
I389
tp1964
a(F0.16483902931213379
I389
tp1965
a(F0.16813921928405762
I389
tp1966
a(F0.16602110862731934
I389
tp1967
a(F0.12679290771484375
I389
tp1968
a(F0.084338188171386719
I389
tp1969
a(F0.087347984313964844
I389
tp1970
a(F0.12567687034606934
I389
tp1971
a(F0.16727590560913086
I389
tp1972
a(F0.12676310539245605
I389
tp1973
a(F0.1245269775390625
I389
tp1974
a(F0.16657209396362305
I389
tp1975
a(F0.20720791816711426
I389
tp1976
a(F0.16667008399963379
I389
tp1977
a(F0.16699910163879395
I389
tp1978
a(F0.20736789703369141
I389
tp1979
a(F0.12417387962341309
I389
tp1980
a(F0.16725993156433105
I390
tp1981
a(F0.29340720176696777
I391
tp1982
a(F0.2924649715423584
I391
tp1983
a(F0.25075507164001465
I391
tp1984
a(F0.29450201988220215
I392
tp1985
a(F0.25189590454101562
I392
tp1986
a(F0.33749580383300781
I393
tp1987
a(F0.33520793914794922
I394
tp1988
a(F0.42686700820922852
I395
tp1989
a(F0.33921098709106445
I395
tp1990
a(F0.34155702590942383
I395
tp1991
a(F0.29776883125305176
I396
tp1992
a(F0.21530008316040039
I396
tp1993
a(F0.30118012428283691
I398
tp1994
a(F0.30434298515319824
I400
tp1995
a(F0.2659449577331543
I401
tp1996
a(F0.18497896194458008
I401
tp1997
a(F0.18475103378295898
I401
tp1998
a(F0.13996195793151855
I401
tp1999
a(F0.18430614471435547
I401
tp2000
a(F0.14054512977600098
I401
tp2001
a(F0.14359092712402344
I401
tp2002
a(F0.1399238109588623
I401
tp2003
a(F0.14038491249084473
I401
tp2004
a(F0.095963001251220703
I401
tp2005
a(F0.051496982574462891
I401
tp2006
a(F0.051948070526123047
I401
tp2007
a(F0.095383882522583008
I402
tp2008
a(F0.099472999572753906
I402
tp2009
a(F0.095704078674316406
I402
tp2010
a(F0.053017854690551758
I402
tp2011
a(F0.0552978515625
I402
tp2012
a(F0.052232027053833008
I402
tp2013
a(F0.0035300254821777344
I402
tp2014
a(F0.0033690929412841797
I402
tp2015
a(F0.0034050941467285156
I402
tp2016
a(F0.0032720565795898438
I402
tp2017
a(F0.0036880970001220703
I402
tp2018
a(F0.0034551620483398438
I402
tp2019
a(F0.0032651424407958984
I402
tp2020
a(F0.0032689571380615234
I402
tp2021
a(F0.0032849311828613281
I402
tp2022
a(F0.0032551288604736328
I402
tp2023
a(F0.052510976791381836
I402
tp2024
a(F0.14488410949707031
I402
tp2025
a(F0.1510779857635498
I402
tp2026
a(F0.14783096313476562
I402
tp2027
a(F0.18742799758911133
I403
tp2028
a(F0.244049072265625
I403
tp2029
a(F0.2255699634552002
I403
tp2030
a(F0.22429800033569336
I403
tp2031
a(F0.18037295341491699
I403
tp2032
a(F0.22447013854980469
I403
tp2033
a(F0.31330204010009766
I405
tp2034
a(F0.3118889331817627
I405
tp2035
a(F0.22733306884765625
I405
tp2036
a(F0.35634803771972656
I406
tp2037
a(F0.31594491004943848
I406
tp2038
a(F0.26953816413879395
I406
tp2039
a(F0.31831789016723633
I407
tp2040
a(F0.2723081111907959
I407
tp2041
a(F0.2743070125579834
I407
tp2042
a(F0.2285010814666748
I408
tp2043
a(F0.22942018508911133
I408
tp2044
a(F0.22919201850891113
I408
tp2045
a(F0.23013806343078613
I408
tp2046
a(F0.32100009918212891
I408
tp2047
a(F0.31926083564758301
I408
tp2048
a(F0.365509033203125
I409
tp2049
a(F0.37252497673034668
I409
tp2050
a(F0.38147592544555664
I411
tp2051
a(F0.38388609886169434
I411
tp2052
a(F0.33661198616027832
I411
tp2053
a(F0.29073882102966309
I411
tp2054
a(F0.28952288627624512
I413
tp2055
a(F0.3072209358215332
I413
tp2056
a(F0.28227901458740234
I413
tp2057
a(F0.23406982421875
I413
tp2058
a(F0.28455591201782227
I413
tp2059
a(F0.23619890213012695
I413
tp2060
a(F0.24077010154724121
I413
tp2061
a(F0.23615598678588867
I413
tp2062
a(F0.18856287002563477
I413
tp2063
a(F0.18839597702026367
I413
tp2064
a(F0.18848419189453125
I413
tp2065
a(F0.18787002563476562
I413
tp2066
a(F0.1428980827331543
I413
tp2067
a(F0.094984054565429688
I413
tp2068
a(F0.097228050231933594
I413
tp2069
a(F0.095290899276733398
I413
tp2070
a(F0.097393989562988281
I413
tp2071
a(F0.049381017684936523
I413
tp2072
a(F0.0034339427947998047
I413
tp2073
a(F0.0032410621643066406
I413
tp2074
a(F0.0032510757446289062
I413
tp2075
a(F0.003253936767578125
I413
tp2076
a(F0.0032448768615722656
I413
tp2077
a(F0.0032711029052734375
I413
tp2078
a(F0.003253936767578125
I413
tp2079
a(F0.048996925354003906
I413
tp2080
a(F0.14338111877441406
I413
tp2081
a(F0.14262914657592773
I413
tp2082
a(F0.19164919853210449
I413
tp2083
a(F0.14067387580871582
I413
tp2084
a(F0.18779206275939941
I413
tp2085
a(F0.14258813858032227
I413
tp2086
a(F0.18868112564086914
I413
tp2087
a(F0.23675394058227539
I414
tp2088
a(F0.18905401229858398
I414
tp2089
a(F0.23478603363037109
I414
tp2090
a(F0.097957134246826172
I414
tp2091
a(F0.14337396621704102
I414
tp2092
a(F0.28108716011047363
I414
tp2093
a(F0.37489891052246094
I414
tp2094
a(F0.28028321266174316
I414
tp2095
a(F0.32964086532592773
I414
tp2096
a(F0.3268580436706543
I414
tp2097
a(F0.37684416770935059
I415
tp2098
a(F0.33290696144104004
I415
tp2099
a(F0.28629708290100098
I416
tp2100
a(F0.24029707908630371
I416
tp2101
a(F0.23752593994140625
I416
tp2102
a(F0.28420901298522949
I417
tp2103
a(F0.23860716819763184
I417
tp2104
a(F0.2408299446105957
I417
tp2105
a(F0.23874282836914062
I417
tp2106
a(F0.19210696220397949
I417
tp2107
a(F0.14383888244628906
I417
tp2108
a(F0.19260597229003906
I418
tp2109
a(F0.19335508346557617
I418
tp2110
a(F0.14620709419250488
I418
tp2111
a(F0.14708399772644043
I418
tp2112
a(F0.195098876953125
I419
tp2113
a(F0.24133896827697754
I420
tp2114
a(F0.24261283874511719
I420
tp2115
a(F0.10103297233581543
I420
tp2116
a(F0.14636898040771484
I420
tp2117
a(F0.24537205696105957
I422
tp2118
a(F0.1968998908996582
I422
tp2119
a(F0.19671392440795898
I422
tp2120
a(F0.19648599624633789
I422
tp2121
a(F0.14684796333312988
I422
tp2122
a(F0.14873003959655762
I422
tp2123
a(F0.14892697334289551
I422
tp2124
a(F0.14953184127807617
I422
tp2125
a(F0.14655804634094238
I422
tp2126
a(F0.1013340950012207
I422
tp2127
a(F0.098848104476928711
I422
tp2128
a(F0.10133719444274902
I422
tp2129
a(F0.099233865737915039
I422
tp2130
a(F0.052531003952026367
I422
tp2131
a(F0.052450180053710938
I422
tp2132
a(F0.09926295280456543
I423
tp2133
a(F0.10167288780212402
I424
tp2134
a(F0.24752998352050781
I424
tp2135
a(F0.19968008995056152
I424
tp2136
a(F0.29636287689208984
I424
tp2137
a(F0.34747195243835449
I424
tp2138
a(F0.44329404830932617
I424
tp2139
a(F0.40903306007385254
I424
tp2140
a(F0.35745501518249512
I424
tp2141
a(F0.20770597457885742
I424
tp2142
a(F0.21073293685913086
I424
tp2143
a(F0.25208711624145508
I425
tp2144
a(F0.24931001663208008
I425
tp2145
a(F0.24890303611755371
I425
tp2146
a(F0.24884510040283203
I425
tp2147
a(F0.25073480606079102
I426
tp2148
a(F0.25130915641784668
I427
tp2149
a(F0.25182390213012695
I427
tp2150
a(F0.25198101997375488
I427
tp2151
a(F0.25367093086242676
I427
tp2152
a(F0.2521369457244873
I427
tp2153
a(F0.25152683258056641
I427
tp2154
a(F0.2520289421081543
I427
tp2155
a(F0.30289292335510254
I428
tp2156
a(F0.20242691040039062
I429
tp2157
a(F0.20357084274291992
I429
tp2158
a(F0.15441107749938965
I429
tp2159
a(F0.20296692848205566
I429
tp2160
a(F0.15180015563964844
I430
tp2161
a(F0.20515298843383789
I431
tp2162
a(F0.25823402404785156
I432
tp2163
a(F0.25705504417419434
I432
tp2164
a(F0.20666885375976562
I432
tp2165
a(F0.2069859504699707
I432
tp2166
a(F0.20669198036193848
I432
tp2167
a(F0.25718498229980469
I433
tp2168
a(F0.26001191139221191
I433
tp2169
a(F0.20772504806518555
I433
tp2170
a(F0.2077481746673584
I433
tp2171
a(F0.15459704399108887
I433
tp2172
a(F0.15853404998779297
I433
tp2173
a(F0.15718913078308105
I433
tp2174
a(F0.10561800003051758
I433
tp2175
a(F0.10570907592773438
I433
tp2176
a(F0.10661101341247559
I433
tp2177
a(F0.10483503341674805
I433
tp2178
a(F0.10676193237304688
I433
tp2179
a(F0.054254055023193359
I433
tp2180
a(F0.054368972778320312
I433
tp2181
a(F0.054395198822021484
I433
tp2182
a(F0.057147979736328125
I433
tp2183
a(F0.1047828197479248
I433
tp2184
a(F0.055478811264038086
I433
tp2185
a(F0.055630922317504883
I433
tp2186
a(F0.0035688877105712891
I433
tp2187
a(F0.054437160491943359
I433
tp2188
a(F0.10682010650634766
I433
tp2189
a(F0.20813512802124023
I433
tp2190
a(F0.15483713150024414
I433
tp2191
a(F0.15727996826171875
I433
tp2192
a(F0.15698885917663574
I433
tp2193
a(F0.10456585884094238
I433
tp2194
a(F0.10694694519042969
I433
tp2195
a(F0.10687088966369629
I433
tp2196
a(F0.20748400688171387
I433
tp2197
a(F0.15474390983581543
I433
tp2198
a(F0.15681314468383789
I433
tp2199
a(F0.20735502243041992
I433
tp2200
a(F0.15718793869018555
I433
tp2201
a(F0.20765900611877441
I433
tp2202
a(F0.2580409049987793
I433
tp2203
a(F0.15715909004211426
I433
tp2204
a(F0.20723700523376465
I433
tp2205
a(F0.20767307281494141
I433
tp2206
a(F0.1571500301361084
I433
tp2207
a(F0.10484695434570312
I433
tp2208
a(F0.20733404159545898
I434
tp2209
a(F0.20963692665100098
I434
tp2210
a(F0.2092890739440918
I434
tp2211
a(F0.16582989692687988
I434
tp2212
a(F0.21030187606811523
I434
tp2213
a(F0.26234912872314453
I435
tp2214
a(F0.31242704391479492
I436
tp2215
a(F0.21074914932250977
I436
tp2216
a(F0.16008901596069336
I436
tp2217
a(F0.16005492210388184
I436
tp2218
a(F0.1598198413848877
I436
tp2219
a(F0.15752410888671875
I436
tp2220
a(F0.15957093238830566
I436
tp2221
a(F0.15985798835754395
I436
tp2222
a(F0.2690129280090332
I436
tp2223
a(F0.32717204093933105
I436
tp2224
a(F0.28223204612731934
I436
tp2225
a(F0.11115002632141113
I436
tp2226
a(F0.10977292060852051
I436
tp2227
a(F0.15929412841796875
I436
tp2228
a(F0.16076397895812988
I436
tp2229
a(F0.15989112854003906
I436
tp2230
a(F0.3131258487701416
I436
tp2231
a(F0.31490516662597656
I436
tp2232
a(F0.31712198257446289
I436
tp2233
a(F0.31319808959960938
I436
tp2234
a(F0.2615809440612793
I436
tp2235
a(F0.26416015625
I436
tp2236
a(F0.21080493927001953
I436
tp2237
a(F0.26152396202087402
I436
tp2238
a(F0.31559109687805176
I436
tp2239
a(F0.31522893905639648
I436
tp2240
a(F0.31782197952270508
I436
tp2241
a(F0.31436491012573242
I436
tp2242
a(F0.36649298667907715
I436
tp2243
a(F0.41703319549560547
I436
tp2244
a(F0.4188380241394043
I436
tp2245
a(F0.36798620223999023
I436
tp2246
a(F0.36624288558959961
I436
tp2247
a(F0.36697196960449219
I436
tp2248
a(F0.36633896827697754
I436
tp2249
a(F0.26439595222473145
I436
tp2250
a(F0.32762408256530762
I436
tp2251
a(F0.27039813995361328
I436
tp2252
a(F0.32695388793945312
I436
tp2253
a(F0.3131861686706543
I436
tp2254
a(F0.26242184638977051
I436
tp2255
a(F0.21388006210327148
I436
tp2256
a(F0.22147417068481445
I436
tp2257
a(F0.21369004249572754
I436
tp2258
a(F0.21235799789428711
I436
tp2259
a(F0.26313304901123047
I436
tp2260
a(F0.26731300354003906
I436
tp2261
a(F0.27402901649475098
I436
tp2262
a(F0.28317093849182129
I436
tp2263
a(F0.27286195755004883
I436
tp2264
a(F0.32646799087524414
I436
tp2265
a(F0.27811408042907715
I436
tp2266
a(F0.32835578918457031
I436
tp2267
a(F0.22046017646789551
I436
tp2268
a(F0.22002506256103516
I436
tp2269
a(F0.27364492416381836
I436
tp2270
a(F0.27327609062194824
I436
tp2271
a(F0.32717490196228027
I436
tp2272
a(F0.32616400718688965
I436
tp2273
a(F0.31719303131103516
I436
tp2274
a(F0.31389403343200684
I436
tp2275
a(F0.3170161247253418
I436
tp2276
a(F0.36705589294433594
I436
tp2277
a(F0.31267380714416504
I436
tp2278
a(F0.31523585319519043
I436
tp2279
a(F0.31566596031188965
I436
tp2280
a(F0.31374692916870117
I436
tp2281
a(F0.26211094856262207
I436
tp2282
a(F0.21114897727966309
I436
tp2283
a(F0.21170496940612793
I436
tp2284
a(F0.31441807746887207
I436
tp2285
a(F0.31569790840148926
I436
tp2286
a(F0.31342005729675293
I436
tp2287
a(F0.33279299736022949
I436
tp2288
a(F0.27506399154663086
I436
tp2289
a(F0.27163290977478027
I436
tp2290
a(F0.26870107650756836
I436
tp2291
a(F0.32428407669067383
I436
tp2292
a(F0.32157492637634277
I436
tp2293
a(F0.32173895835876465
I436
tp2294
a(F0.33403205871582031
I436
tp2295
a(F0.21451282501220703
I436
tp2296
a(F0.21483206748962402
I436
tp2297
a(F0.26719903945922852
I436
tp2298
a(F0.21422219276428223
I436
tp2299
a(F0.31749606132507324
I436
tp2300
a(F0.32475590705871582
I436
tp2301
a(F0.32066011428833008
I436
tp2302
a(F0.32270002365112305
I436
tp2303
a(F0.2168428897857666
I436
tp2304
a(F0.26631712913513184
I436
tp2305
a(F0.26587295532226562
I436
tp2306
a(F0.26634597778320312
I436
tp2307
a(F0.26668500900268555
I436
tp2308
a(F0.21468901634216309
I436
tp2309
a(F0.26779699325561523
I436
tp2310
a(F0.26976299285888672
I436
tp2311
a(F0.26767611503601074
I436
tp2312
a(F0.26614499092102051
I436
tp2313
a(F0.2672879695892334
I436
tp2314
a(F0.26760697364807129
I436
tp2315
a(F0.3199470043182373
I436
tp2316
a(F0.31929111480712891
I436
tp2317
a(F0.32418990135192871
I436
tp2318
a(F0.2137749195098877
I436
tp2319
a(F0.21840095520019531
I436
tp2320
a(F0.21423602104187012
I436
tp2321
a(F0.2658991813659668
I436
tp2322
a(F0.32485795021057129
I436
tp2323
a(F0.26437902450561523
I436
tp2324
a(F0.31877398490905762
I436
tp2325
a(F0.31492710113525391
I436
tp2326
a(F0.26285195350646973
I436
tp2327
a(F0.3235621452331543
I436
tp2328
a(F0.32506108283996582
I436
tp2329
a(F0.26443886756896973
I436
tp2330
a(F0.21228790283203125
I436
tp2331
a(F0.3201749324798584
I436
tp2332
a(F0.31639909744262695
I436
tp2333
a(F0.21225404739379883
I436
tp2334
a(F0.21309208869934082
I436
tp2335
a(F0.21428489685058594
I436
tp2336
a(F0.21206307411193848
I436
tp2337
a(F0.21363615989685059
I436
tp2338
a(F0.31844091415405273
I436
tp2339
a(F0.32447409629821777
I436
tp2340
a(F0.36823296546936035
I436
tp2341
a(F0.31388378143310547
I436
tp2342
a(F0.31858301162719727
I436
tp2343
a(F0.2643129825592041
I436
tp2344
a(F0.26363706588745117
I436
tp2345
a(F0.27960109710693359
I436
tp2346
a(F0.26227188110351562
I436
tp2347
a(F0.26369905471801758
I436
tp2348
a(F0.31795406341552734
I436
tp2349
a(F0.26359391212463379
I436
tp2350
a(F0.27263212203979492
I436
tp2351
a(F0.26312804222106934
I436
tp2352
a(F0.31872105598449707
I436
tp2353
a(F0.31578898429870605
I436
tp2354
a(F0.36925196647644043
I436
tp2355
a(F0.42036080360412598
I436
tp2356
a(F0.42560815811157227
I436
tp2357
a(F0.3791649341583252
I436
tp2358
a(F0.36985588073730469
I436
tp2359
a(F0.3673241138458252
I436
tp2360
a(F0.27019500732421875
I436
tp2361
a(F0.26549983024597168
I436
tp2362
a(F0.21127700805664062
I436
tp2363
a(F0.16118884086608887
I436
tp2364
a(F0.16120600700378418
I436
tp2365
a(F0.10823798179626465
I436
tp2366
a(F0.21542501449584961
I436
tp2367
a(F0.15964293479919434
I436
tp2368
a(F0.21172499656677246
I436
tp2369
a(F0.10957098007202148
I436
tp2370
a(F0.10675215721130371
I436
tp2371
a(F0.11062312126159668
I436
tp2372
a(F0.10822010040283203
I436
tp2373
a(F0.15920901298522949
I436
tp2374
a(F0.2114710807800293
I436
tp2375
a(F0.16088700294494629
I436
tp2376
a(F0.21116900444030762
I436
tp2377
a(F0.1603550910949707
I436
tp2378
a(F0.21154212951660156
I436
tp2379
a(F0.21101617813110352
I436
tp2380
a(F0.15987300872802734
I436
tp2381
a(F0.1600949764251709
I436
tp2382
a(F0.21253514289855957
I436
tp2383
a(F0.21263313293457031
I436
tp2384
a(F0.26269888877868652
I436
tp2385
a(F0.36720085144042969
I436
tp2386
a(F0.4688718318939209
I436
tp2387
a(F0.36682605743408203
I436
tp2388
a(F0.3668670654296875
I436
tp2389
a(F0.3681330680847168
I436
tp2390
a(F0.36751794815063477
I436
tp2391
a(F0.2138359546661377
I436
tp2392
a(F0.15945100784301758
I436
tp2393
a(F0.16168093681335449
I436
tp2394
a(F0.15986800193786621
I436
tp2395
a(F0.21133899688720703
I436
tp2396
a(F0.21092891693115234
I436
tp2397
a(F0.21152305603027344
I436
tp2398
a(F0.21118617057800293
I436
tp2399
a(F0.16007614135742188
I436
tp2400
a(F0.1089329719543457
I436
tp2401
a(F0.15789103507995605
I436
tp2402
a(F0.10879683494567871
I436
tp2403
a(F0.21074891090393066
I436
tp2404
a(F0.21154904365539551
I436
tp2405
a(F0.31575608253479004
I436
tp2406
a(F0.26275801658630371
I436
tp2407
a(F0.26252102851867676
I436
tp2408
a(F0.21180582046508789
I436
tp2409
a(F0.26432895660400391
I436
tp2410
a(F0.21183204650878906
I436
tp2411
a(F0.31276392936706543
I436
tp2412
a(F0.31571793556213379
I436
tp2413
a(F0.31353402137756348
I436
tp2414
a(F0.26438307762145996
I436
tp2415
a(F0.21122622489929199
I436
tp2416
a(F0.21063017845153809
I436
tp2417
a(F0.26231718063354492
I436
tp2418
a(F0.31563901901245117
I436
tp2419
a(F0.36458802223205566
I436
tp2420
a(F0.32803106307983398
I436
tp2421
a(F0.37496805191040039
I436
tp2422
a(F0.31427812576293945
I436
tp2423
a(F0.26604986190795898
I436
tp2424
a(F0.31343507766723633
I436
tp2425
a(F0.31534409523010254
I436
tp2426
a(F0.31372499465942383
I436
tp2427
a(F0.26512002944946289
I436
tp2428
a(F0.26207089424133301
I436
tp2429
a(F0.26256418228149414
I436
tp2430
a(F0.26777505874633789
I436
tp2431
a(F0.26241302490234375
I436
tp2432
a(F0.31583499908447266
I436
tp2433
a(F0.26230001449584961
I436
tp2434
a(F0.31352686882019043
I436
tp2435
a(F0.26593804359436035
I436
tp2436
a(F0.31303691864013672
I436
tp2437
a(F0.26402521133422852
I436
tp2438
a(F0.21143412590026855
I436
tp2439
a(F0.21100282669067383
I436
tp2440
a(F0.21495699882507324
I436
tp2441
a(F0.26251387596130371
I436
tp2442
a(F0.26206517219543457
I436
tp2443
a(F0.31577205657958984
I436
tp2444
a(F0.26256108283996582
I436
tp2445
a(F0.2108759880065918
I436
tp2446
a(F0.26472687721252441
I436
tp2447
a(F0.31349515914916992
I436
tp2448
a(F0.26301884651184082
I436
tp2449
a(F0.31439113616943359
I436
tp2450
a(F0.26156187057495117
I436
tp2451
a(F0.26663422584533691
I436
tp2452
a(F0.21120905876159668
I436
tp2453
a(F0.21108293533325195
I436
tp2454
a(F0.31357884407043457
I436
tp2455
a(F0.31602692604064941
I436
tp2456
a(F0.31477499008178711
I436
tp2457
a(F0.31380891799926758
I436
tp2458
a(F0.37262105941772461
I436
tp2459
a(F0.41777300834655762
I436
tp2460
a(F0.26276493072509766
I436
tp2461
a(F0.31552600860595703
I436
tp2462
a(F0.31474184989929199
I436
tp2463
a(F0.31852102279663086
I436
tp2464
a(F0.31704902648925781
I436
tp2465
a(F0.31601595878601074
I436
tp2466
a(F0.26643705368041992
I436
tp2467
a(F0.21197080612182617
I436
tp2468
a(F0.21288895606994629
I436
tp2469
a(F0.26402807235717773
I436
tp2470
a(F0.22195291519165039
I436
tp2471
a(F0.31695079803466797
I436
tp2472
a(F0.37341690063476562
I436
tp2473
a(F0.27424097061157227
I436
tp2474
a(F0.26372504234313965
I436
tp2475
a(F0.31755709648132324
I436
tp2476
a(F0.31986212730407715
I436
tp2477
a(F0.28044009208679199
I436
tp2478
a(F0.21324491500854492
I436
tp2479
a(F0.21175789833068848
I436
tp2480
a(F0.26872515678405762
I436
tp2481
a(F0.22988200187683105
I436
tp2482
a(F0.33295702934265137
I436
tp2483
a(F0.32454204559326172
I436
tp2484
a(F0.32208395004272461
I436
tp2485
a(F0.32180905342102051
I436
tp2486
a(F0.37693095207214355
I436
tp2487
a(F0.47893095016479492
I436
tp2488
a(F0.37713098526000977
I436
tp2489
a(F0.42406296730041504
I436
tp2490
a(F0.42576313018798828
I436
tp2491
a(F0.31925106048583984
I436
tp2492
a(F0.31976008415222168
I436
tp2493
a(F0.32152605056762695
I436
tp2494
a(F0.31579494476318359
I436
tp2495
a(F0.31997799873352051
I436
tp2496
a(F0.31652998924255371
I436
tp2497
a(F0.31371617317199707
I436
tp2498
a(F0.31685805320739746
I436
tp2499
a(F0.31410598754882812
I436
tp2500
a(F0.3194890022277832
I436
tp2501
a(F0.26392912864685059
I436
tp2502
a(F0.32023501396179199
I436
tp2503
a(F0.26282596588134766
I436
tp2504
a(F0.41960406303405762
I436
tp2505
a(F0.42006015777587891
I436
tp2506
a(F0.47200202941894531
I436
tp2507
a(F0.47017288208007812
I436
tp2508
a(F0.42061090469360352
I436
tp2509
a(F0.42316603660583496
I436
tp2510
a(F0.43225979804992676
I436
tp2511
a(F0.32966423034667969
I436
tp2512
a(F0.30528497695922852
I436
tp2513
a(F0.16531205177307129
I436
tp2514
a(F0.21240901947021484
I436
tp2515
a(F0.16196608543395996
I436
tp2516
a(F0.16271400451660156
I436
tp2517
a(F0.21288490295410156
I436
tp2518
a(F0.26277303695678711
I436
tp2519
a(F0.31698703765869141
I436
tp2520
a(F0.31557607650756836
I436
tp2521
a(F0.26716399192810059
I436
tp2522
a(F0.31479287147521973
I436
tp2523
a(F0.21317100524902344
I436
tp2524
a(F0.21296501159667969
I436
tp2525
a(F0.26349902153015137
I436
tp2526
a(F0.26477885246276855
I436
tp2527
a(F0.31818914413452148
I436
tp2528
a(F0.31484389305114746
I436
tp2529
a(F0.36784911155700684
I436
tp2530
a(F0.41921615600585938
I436
tp2531
a(F0.41928386688232422
I436
tp2532
a(F0.26550817489624023
I436
tp2533
a(F0.31423211097717285
I436
tp2534
a(F0.41999006271362305
I436
tp2535
a(F0.36800694465637207
I436
tp2536
a(F0.37230420112609863
I436
tp2537
a(F0.26268506050109863
I436
tp2538
a(F0.21183609962463379
I436
tp2539
a(F0.21413111686706543
I436
tp2540
a(F0.21285104751586914
I436
tp2541
a(F0.21281313896179199
I436
tp2542
a(F0.21728515625
I436
tp2543
a(F0.21366500854492188
I436
tp2544
a(F0.21165013313293457
I436
tp2545
a(F0.11138606071472168
I436
tp2546
a(F0.10946202278137207
I436
tp2547
a(F0.10678982734680176
I436
tp2548
a(F0.057769060134887695
I436
tp2549
a(F0.055584907531738281
I436
tp2550
a(F0.10804295539855957
I437
tp2551
a(F0.11073017120361328
I437
tp2552
a(F0.106597900390625
I438
tp2553
a(F0.11198091506958008
I438
tp2554
a(F0.16353607177734375
I439
tp2555
a(F0.056530952453613281
I439
tp2556
a(F0.10981321334838867
I440
tp2557
a(F0.16086912155151367
I440
tp2558
a(F0.16276812553405762
I441
tp2559
a(F0.11121702194213867
I441
tp2560
a(F0.21555805206298828
I441
tp2561
a(F0.21555805206298828
I441
tp2562
a(F0.16460990905761719
I441
tp2563
a(F0.22485995292663574
I442
tp2564
a(F0.2713921070098877
I442
tp2565
a(F0.27559018135070801
I442
tp2566
a(F0.21853899955749512
I442
tp2567
a(F0.21822500228881836
I442
tp2568
a(F0.1646878719329834
I442
tp2569
a(F0.16237282752990723
I442
tp2570
a(F0.16675901412963867
I442
tp2571
a(F0.16513586044311523
I442
tp2572
a(F0.11212682723999023
I442
tp2573
a(F0.16226387023925781
I443
tp2574
a(F0.16560196876525879
I443
tp2575
a(F0.16598200798034668
I443
tp2576
a(F0.16631793975830078
I443
tp2577
a(F0.16516900062561035
I444
tp2578
a(F0.11126589775085449
I444
tp2579
a(F0.11313700675964355
I444
tp2580
a(F0.11080789566040039
I444
tp2581
a(F0.11497402191162109
I444
tp2582
a(F0.11257100105285645
I444
tp2583
a(F0.05884099006652832
I444
tp2584
a(F0.16559815406799316
I446
tp2585
a(F0.057830095291137695
I446
tp2586
a(F0.16813421249389648
I447
tp2587
a(F0.11292409896850586
I447
tp2588
a(F0.1148841381072998
I447
tp2589
a(F0.11260700225830078
I447
tp2590
a(F0.16943883895874023
I447
tp2591
a(F0.16906905174255371
I447
tp2592
a(F0.11505293846130371
I447
tp2593
a(F0.11288809776306152
I447
tp2594
a(F0.16831016540527344
I448
tp2595
a(F0.16921806335449219
I448
tp2596
a(F0.11382508277893066
I448
tp2597
a(F0.22437000274658203
I449
tp2598
a(F0.16757321357727051
I449
tp2599
a(F0.22826480865478516
I449
tp2600
a(F0.22465705871582031
I449
tp2601
a(F0.11352777481079102
I449
tp2602
a(F0.16987705230712891
I449
tp2603
a(F0.16971302032470703
I449
tp2604
a(F0.17075586318969727
I449
tp2605
a(F0.11333203315734863
I449
tp2606
a(F0.11789107322692871
I449
tp2607
a(F0.11556410789489746
I449
tp2608
a(F0.16797089576721191
I451
tp2609
a(F0.11846303939819336
I451
tp2610
a(F0.22714400291442871
I452
tp2611
a(F0.17270207405090332
I452
tp2612
a(F0.22845196723937988
I452
tp2613
a(F0.22832894325256348
I452
tp2614
a(F0.28545999526977539
I453
tp2615
a(F0.22796297073364258
I453
tp2616
a(F0.23450493812561035
I453
tp2617
a(F0.11918997764587402
I453
tp2618
a(F0.17175602912902832
I453
tp2619
a(F0.11917304992675781
I453
tp2620
a(F0.17397689819335938
I453
tp2621
a(F0.17485594749450684
I453
tp2622
a(F0.17990493774414062
I453
tp2623
a(F0.17285585403442383
I453
tp2624
a(F0.17454099655151367
I453
tp2625
a(F0.17294692993164062
I454
tp2626
a(F0.17463994026184082
I454
tp2627
a(F0.11823201179504395
I454
tp2628
a(F0.17358303070068359
I454
tp2629
a(F0.11657094955444336
I454
tp2630
a(F0.059999942779541016
I454
tp2631
a(F0.11936807632446289
I454
tp2632
a(F0.1175229549407959
I454
tp2633
a(F0.11516809463500977
I454
tp2634
a(F0.060013055801391602
I454
tp2635
a(F0.11775588989257812
I455
tp2636
a(F0.11956596374511719
I455
tp2637
a(F0.11686515808105469
I455
tp2638
a(F0.17471694946289062
I456
tp2639
a(F0.1767430305480957
I456
tp2640
a(F0.17610788345336914
I456
tp2641
a(F0.17556190490722656
I456
tp2642
a(F0.23164796829223633
I457
tp2643
a(F0.17565488815307617
I457
tp2644
a(F0.1184089183807373
I457
tp2645
a(F0.06276702880859375
I457
tp2646
a(F0.11763405799865723
I457
tp2647
a(F0.11932897567749023
I457
tp2648
a(F0.1173708438873291
I457
tp2649
a(F0.11947202682495117
I457
tp2650
a(F0.17551922798156738
I458
tp2651
a(F0.11789202690124512
I458
tp2652
a(F0.12059712409973145
I458
tp2653
a(F0.11976003646850586
I458
tp2654
a(F0.11805295944213867
I458
tp2655
a(F0.23319387435913086
I459
tp2656
a(F0.12109494209289551
I459
tp2657
a(F0.061525106430053711
I459
tp2658
a(F0.063513994216918945
I459
tp2659
a(F0.17530393600463867
I460
tp2660
a(F0.23984694480895996
I461
tp2661
a(F0.23677802085876465
I461
tp2662
a(F0.23608589172363281
I461
tp2663
a(F0.17894911766052246
I461
tp2664
a(F0.1787869930267334
I461
tp2665
a(F0.17836594581604004
I461
tp2666
a(F0.11898589134216309
I461
tp2667
a(F0.12165093421936035
I461
tp2668
a(F0.11922407150268555
I461
tp2669
a(F0.12291407585144043
I461
tp2670
a(F0.12165689468383789
I461
tp2671
a(F0.23749589920043945
I463
tp2672
a(F0.06229090690612793
I463
tp2673
a(F0.18011689186096191
I464
tp2674
a(F0.18191885948181152
I464
tp2675
a(F0.24014115333557129
I464
tp2676
a(F0.18159008026123047
I464
tp2677
a(F0.18220305442810059
I465
tp2678
a(F0.23992395401000977
I466
tp2679
a(F0.064453840255737305
I466
tp2680
a(F0.12326788902282715
I466
tp2681
a(F0.18361592292785645
I466
tp2682
a(F0.24238300323486328
I467
tp2683
a(F0.18542098999023438
I467
tp2684
a(F0.24410891532897949
I467
tp2685
a(F0.30595707893371582
I467
tp2686
a(F0.18526482582092285
I467
tp2687
a(F0.24452090263366699
I467
tp2688
a(F0.18521499633789062
I467
tp2689
a(F0.24342584609985352
I468
tp2690
a(F0.1253969669342041
I468
tp2691
a(F0.1842191219329834
I469
tp2692
a(F0.18531084060668945
I469
tp2693
a(F0.2443690299987793
I469
tp2694
a(F0.30460810661315918
I470
tp2695
a(F0.30681300163269043
I470
tp2696
a(F0.24658799171447754
I471
tp2697
a(F0.18758797645568848
I471
tp2698
a(F0.24798083305358887
I471
tp2699
a(F0.1883699893951416
I471
tp2700
a(F0.18810915946960449
I471
tp2701
a(F0.18858909606933594
I471
tp2702
a(F0.18780708312988281
I471
tp2703
a(F0.248046875
I471
tp2704
a(F0.2468559741973877
I472
tp2705
a(F0.31621408462524414
I473
tp2706
a(F0.26026797294616699
I473
tp2707
a(F0.18768501281738281
I473
tp2708
a(F0.24963879585266113
I474
tp2709
a(F0.25133705139160156
I474
tp2710
a(F0.2495567798614502
I474
tp2711
a(F0.18831491470336914
I474
tp2712
a(F0.31225895881652832
I475
tp2713
a(F0.19085812568664551
I475
tp2714
a(F0.25319004058837891
I475
tp2715
a(F0.19029402732849121
I475
tp2716
a(F0.19044804573059082
I475
tp2717
a(F0.12670707702636719
I475
tp2718
a(F0.25046801567077637
I476
tp2719
a(F0.25333380699157715
I476
tp2720
a(F0.25259804725646973
I476
tp2721
a(F0.25167202949523926
I476
tp2722
a(F0.31586003303527832
I478
tp2723
a(F0.25289487838745117
I478
tp2724
a(F0.2527930736541748
I478
tp2725
a(F0.19181013107299805
I478
tp2726
a(F0.1911320686340332
I478
tp2727
a(F0.19132089614868164
I478
tp2728
a(F0.19145798683166504
I478
tp2729
a(F0.12992095947265625
I478
tp2730
a(F0.1911468505859375
I478
tp2731
a(F0.25487112998962402
I480
tp2732
a(F0.19467711448669434
I480
tp2733
a(F0.25658893585205078
I480
tp2734
a(F0.2685999870300293
I480
tp2735
a(F0.21754002571105957
I480
tp2736
a(F0.26151394844055176
I481
tp2737
a(F0.38420200347900391
I482
tp2738
a(F0.32074880599975586
I482
tp2739
a(F0.26019001007080078
I482
tp2740
a(F0.195343017578125
I482
tp2741
a(F0.1948390007019043
I482
tp2742
a(F0.19489789009094238
I482
tp2743
a(F0.19574284553527832
I482
tp2744
a(F0.19444608688354492
I482
tp2745
a(F0.27200412750244141
I483
tp2746
a(F0.1433110237121582
I483
tp2747
a(F0.2064979076385498
I483
tp2748
a(F0.20113515853881836
I483
tp2749
a(F0.20118284225463867
I484
tp2750
a(F0.19977498054504395
I484
tp2751
a(F0.20086812973022461
I484
tp2752
a(F0.20437407493591309
I484
tp2753
a(F0.26746487617492676
I485
tp2754
a(F0.26575493812561035
I485
tp2755
a(F0.198699951171875
I486
tp2756
a(F0.13546991348266602
I486
tp2757
a(F0.26993989944458008
I487
tp2758
a(F0.20292782783508301
I487
tp2759
a(F0.26824617385864258
I487
tp2760
a(F0.26804995536804199
I487
tp2761
a(F0.20360398292541504
I487
tp2762
a(F0.20241212844848633
I487
tp2763
a(F0.33306503295898438
I489
tp2764
a(F0.3338620662689209
I489
tp2765
a(F0.33825182914733887
I489
tp2766
a(F0.33745408058166504
I490
tp2767
a(F0.13842582702636719
I490
tp2768
a(F0.13769698143005371
I490
tp2769
a(F0.20766115188598633
I490
tp2770
a(F0.27361416816711426
I491
tp2771
a(F0.20455718040466309
I491
tp2772
a(F0.20530414581298828
I491
tp2773
a(F0.2101280689239502
I491
tp2774
a(F0.27320599555969238
I491
tp2775
a(F0.27138519287109375
I491
tp2776
a(F0.27212095260620117
I492
tp2777
a(F0.34269809722900391
I492
tp2778
a(F0.33909511566162109
I492
tp2779
a(F0.27466917037963867
I492
tp2780
a(F0.20649099349975586
I492
tp2781
a(F0.20650291442871094
I492
tp2782
a(F0.13880419731140137
I492
tp2783
a(F0.13922810554504395
I492
tp2784
a(F0.14020705223083496
I492
tp2785
a(F0.14138007164001465
I492
tp2786
a(F0.13994312286376953
I492
tp2787
a(F0.14173388481140137
I492
tp2788
a(F0.3059849739074707
I494
tp2789
a(F0.21091699600219727
I494
tp2790
a(F0.27417993545532227
I494
tp2791
a(F0.20706820487976074
I494
tp2792
a(F0.14216113090515137
I494
tp2793
a(F0.14300298690795898
I494
tp2794
a(F0.13916587829589844
I494
tp2795
a(F0.21167182922363281
I496
tp2796
a(F0.20841288566589355
I497
tp2797
a(F0.21304488182067871
I497
tp2798
a(F0.28860688209533691
I499
tp2799
a(F0.49412703514099121
I501
tp2800
a(F0.2845001220703125
I501
tp2801
a(F0.074908971786499023
I501
tp2802
a(F0.35243797302246094
I501
tp2803
a(F0.35438919067382812
I501
tp2804
a(F0.49760890007019043
I503
tp2805
a(F0.49668717384338379
I503
tp2806
a(F0.43243908882141113
I503
tp2807
a(F0.35682296752929688
I504
tp2808
a(F0.28838992118835449
I504
tp2809
a(F0.35699701309204102
I504
tp2810
a(F0.075893163681030273
I504
tp2811
a(F0.076715946197509766
I504
tp2812
a(F0.074702978134155273
I504
tp2813
a(F0.1452031135559082
I505
tp2814
a(F0.1453709602355957
I505
tp2815
a(F0.074674844741821289
I505
tp2816
a(F0.0749969482421875
I505
tp2817
a(F0.074606895446777344
I505
tp2818
a(F0.075111865997314453
I505
tp2819
a(F0.14971208572387695
I505
tp2820
a(F0.15528988838195801
I505
tp2821
a(F0.28419804573059082
I505
tp2822
a(F0.35608911514282227
I505
tp2823
a(F0.2834620475769043
I505
tp2824
a(F0.35446596145629883
I505
tp2825
a(F0.42334103584289551
I505
tp2826
a(F0.49339795112609863
I505
tp2827
a(F0.5632469654083252
I505
tp2828
a(F0.49539089202880859
I505
tp2829
a(F0.42354393005371094
I505
tp2830
a(F0.56300902366638184
I505
tp2831
a(F0.49323797225952148
I505
tp2832
a(F0.49471902847290039
I505
tp2833
a(F0.42393016815185547
I505
tp2834
a(F0.35366487503051758
I505
tp2835
a(F0.35303401947021484
I505
tp2836
a(F0.3547050952911377
I505
tp2837
a(F0.42327618598937988
I506
tp2838
a(F0.28540682792663574
I506
tp2839
a(F0.28509807586669922
I506
tp2840
a(F0.28597807884216309
I506
tp2841
a(F0.35949993133544922
I507
tp2842
a(F0.37503504753112793
I507
tp2843
a(F0.38969302177429199
I507
tp2844
a(F0.36192798614501953
I507
tp2845
a(F0.35847091674804688
I507
tp2846
a(F0.21803998947143555
I507
tp2847
a(F0.28514599800109863
I508
tp2848
a(F0.28888201713562012
I508
tp2849
a(F0.28876805305480957
I508
tp2850
a(F0.28727507591247559
I508
tp2851
a(F0.21722292900085449
I508
tp2852
a(F0.21853494644165039
I508
tp2853
a(F0.28733706474304199
I509
tp2854
a(F0.28702616691589355
I509
tp2855
a(F0.29917216300964355
I510
tp2856
a(F0.37838411331176758
I511
tp2857
a(F0.3695368766784668
I511
tp2858
a(F0.29192805290222168
I511
tp2859
a(F0.43431997299194336
I512
tp2860
a(F0.3648529052734375
I512
tp2861
a(F0.36512207984924316
I512
tp2862
a(F0.36445093154907227
I512
tp2863
a(F0.36258792877197266
I512
tp2864
a(F0.36507511138916016
I512
tp2865
a(F0.4412391185760498
I513
tp2866
a(F0.36643195152282715
I513
tp2867
a(F0.36627888679504395
I513
tp2868
a(F0.43752694129943848
I514
tp2869
a(F0.45085716247558594
I514
tp2870
a(F0.44169092178344727
I514
tp2871
a(F0.43831801414489746
I514
tp2872
a(F0.36647200584411621
I514
tp2873
a(F0.36576390266418457
I514
tp2874
a(F0.36657214164733887
I515
tp2875
a(F0.44125699996948242
I516
tp2876
a(F0.44452714920043945
I516
tp2877
a(F0.36969184875488281
I516
tp2878
a(F0.36807608604431152
I516
tp2879
a(F0.36862993240356445
I517
tp2880
a(F0.37017107009887695
I517
tp2881
a(F0.44263291358947754
I518
tp2882
a(F0.37435007095336914
I518
tp2883
a(F0.44471597671508789
I518
tp2884
a(F0.30014610290527344
I518
tp2885
a(F0.37225890159606934
I518
tp2886
a(F0.37249898910522461
I518
tp2887
a(F0.45956802368164062
I519
tp2888
a(F0.3011322021484375
I520
tp2889
a(F0.37661504745483398
I520
tp2890
a(F0.37632489204406738
I520
tp2891
a(F0.45370197296142578
I520
tp2892
a(F0.45211291313171387
I520
tp2893
a(F0.37547397613525391
I520
tp2894
a(F0.37688398361206055
I520
tp2895
a(F0.30167293548583984
I520
tp2896
a(F0.29972195625305176
I520
tp2897
a(F0.37363004684448242
I521
tp2898
a(F0.52618098258972168
I523
tp2899
a(F0.60506200790405273
I524
tp2900
a(F0.37928199768066406
I525
tp2901
a(F0.30480694770812988
I525
tp2902
a(F0.38102388381958008
I526
tp2903
a(F0.30902194976806641
I526
tp2904
a(F0.15498208999633789
I526
tp2905
a(F0.15668892860412598
I526
tp2906
a(F0.15711712837219238
I526
tp2907
a(F0.079806089401245117
I526
tp2908
a(F0.083524942398071289
I526
tp2909
a(F0.0042541027069091797
I526
tp2910
a(F0.0040571689605712891
I526
tp2911
a(F0.0041131973266601562
I526
tp2912
a(F0.0040280818939208984
I526
tp2913
a(F0.0041029453277587891
I526
tp2914
a(F0.0040559768676757812
I526
tp2915
a(F0.0043041706085205078
I526
tp2916
a(F0.0040729045867919922
I526
tp2917
a(F0.0041029453277587891
I526
tp2918
a(F0.0040659904479980469
I526
tp2919
a(F0.0043590068817138672
I526
tp2920
a(F0.079800128936767578
I526
tp2921
a(F0.083714008331298828
I526
tp2922
a(F0.23153209686279297
I526
tp2923
a(F0.23147082328796387
I526
tp2924
a(F0.3083040714263916
I526
tp2925
a(F0.30619311332702637
I526
tp2926
a(F0.30842399597167969
I526
tp2927
a(F0.1556999683380127
I526
tp2928
a(F0.15592408180236816
I526
tp2929
a(F0.23263120651245117
I526
tp2930
a(F0.23472976684570312
I526
tp2931
a(F0.23254799842834473
I526
tp2932
a(F0.15641593933105469
I526
tp2933
a(F0.23384618759155273
I526
tp2934
a(F0.23325109481811523
I526
tp2935
a(F0.38492202758789062
I526
tp2936
a(F0.30739283561706543
I526
tp2937
a(F0.38363409042358398
I526
tp2938
a(F0.53523802757263184
I526
tp2939
a(F0.45803713798522949
I526
tp2940
a(F0.4575049877166748
I526
tp2941
a(F0.46056103706359863
I526
tp2942
a(F0.38224506378173828
I526
tp2943
a(F0.45798587799072266
I526
tp2944
a(F0.38337397575378418
I526
tp2945
a(F0.45787191390991211
I526
tp2946
a(F0.38286113739013672
I526
tp2947
a(F0.45833992958068848
I526
tp2948
a(F0.45896697044372559
I526
tp2949
a(F0.61214804649353027
I526
tp2950
a(F0.77792692184448242
I527
tp2951
a(F0.62971901893615723
I527
tp2952
a(F0.62669682502746582
I527
tp2953
a(F0.78647589683532715
I527
tp2954
a(F0.70495176315307617
I528
tp2955
a(F0.84469699859619141
I529
tp2956
a(F0.92565393447875977
I529
tp2957
a(F0.84779191017150879
I529
tp2958
a(F0.86709690093994141
I530
tp2959
a(F0.70332002639770508
I530
tp2960
a(F0.62642812728881836
I532
tp2961
a(F0.47178912162780762
I532
tp2962
a(F0.31968498229980469
I532
tp2963
a(F0.39400982856750488
I532
tp2964
a(F0.47049999237060547
I533
tp2965
a(F0.40785479545593262
I533
tp2966
a(F0.32201814651489258
I533
tp2967
a(F0.31826496124267578
I533
tp2968
a(F0.31590890884399414
I533
tp2969
a(F0.31657695770263672
I533
tp2970
a(F0.31652283668518066
I533
tp2971
a(F0.16167283058166504
I533
tp2972
a(F0.16190195083618164
I533
tp2973
a(F0.16164803504943848
I533
tp2974
a(F0.1588289737701416
I533
tp2975
a(F0.16292190551757812
I533
tp2976
a(F0.08377385139465332
I533
tp2977
a(F0.082650899887084961
I533
tp2978
a(F0.081587076187133789
I533
tp2979
a(F0.085825204849243164
I533
tp2980
a(F0.081475973129272461
I533
tp2981
a(F0.0043339729309082031
I533
tp2982
a(F0.0040669441223144531
I533
tp2983
a(F0.083693027496337891
I533
tp2984
a(F0.2377779483795166
I533
tp2985
a(F0.47020411491394043
I534
tp2986
a(F0.39511895179748535
I534
tp2987
a(F0.55154705047607422
I534
tp2988
a(F0.55211210250854492
I534
tp2989
a(F0.55010104179382324
I534
tp2990
a(F0.55375981330871582
I534
tp2991
a(F0.39486598968505859
I534
tp2992
a(F0.3182520866394043
I534
tp2993
a(F0.31663203239440918
I534
tp2994
a(F0.32341909408569336
I534
tp2995
a(F0.44192910194396973
I534
tp2996
a(F0.25592708587646484
I534
tp2997
a(F0.32153201103210449
I534
tp2998
a(F0.31971192359924316
I534
tp2999
a(F0.32761788368225098
I534
tp3000
a(F0.24454188346862793
I534
tp3001
a(F0.24477291107177734
I534
tp3002
a(F0.3221890926361084
I534
tp3003
a(F0.32160186767578125
I534
tp3004
a(F0.2433619499206543
I534
tp3005
a(F0.72219705581665039
I534
tp3006
a(F0.64566802978515625
I534
tp3007
a(F0.63740992546081543
I534
tp3008
a(F0.5649869441986084
I534
tp3009
a(F0.56861996650695801
I534
tp3010
a(F0.64417099952697754
I534
tp3011
a(F0.56212997436523438
I534
tp3012
a(F0.40230703353881836
I534
tp3013
a(F0.63944292068481445
I534
tp3014
a(F0.55943417549133301
I534
tp3015
a(F0.56065487861633301
I534
tp3016
a(F0.64557409286499023
I534
tp3017
a(F0.55901098251342773
I534
tp3018
a(F0.56291508674621582
I534
tp3019
a(F0.47925806045532227
I534
tp3020
a(F0.40702700614929199
I534
tp3021
a(F0.47980189323425293
I534
tp3022
a(F0.55993294715881348
I534
tp3023
a(F0.55938196182250977
I534
tp3024
a(F0.56766510009765625
I534
tp3025
a(F0.55875110626220703
I534
tp3026
a(F0.56348609924316406
I534
tp3027
a(F0.48329591751098633
I534
tp3028
a(F0.40350890159606934
I534
tp3029
a(F0.47999310493469238
I534
tp3030
a(F0.48263001441955566
I534
tp3031
a(F0.47997188568115234
I534
tp3032
a(F0.53067302703857422
I534
tp3033
a(F0.50210213661193848
I534
tp3034
a(F0.58674192428588867
I534
tp3035
a(F0.42006802558898926
I534
tp3036
a(F0.52702212333679199
I534
tp3037
a(F0.41008901596069336
I534
tp3038
a(F0.49368190765380859
I534
tp3039
a(F0.48800516128540039
I534
tp3040
a(F0.41238617897033691
I534
tp3041
a(F0.39734888076782227
I534
tp3042
a(F0.47346210479736328
I534
tp3043
a(F0.51189398765563965
I534
tp3044
a(F0.56507301330566406
I534
tp3045
a(F0.55344915390014648
I534
tp3046
a(F0.5499870777130127
I534
tp3047
a(F0.55272388458251953
I534
tp3048
a(F0.4711301326751709
I534
tp3049
a(F0.47351789474487305
I534
tp3050
a(F0.54824304580688477
I534
tp3051
a(F0.5898289680480957
I534
tp3052
a(F0.40413880348205566
I534
tp3053
a(F0.40276598930358887
I534
tp3054
a(F0.40297389030456543
I534
tp3055
a(F0.31949186325073242
I534
tp3056
a(F0.39432597160339355
I534
tp3057
a(F0.39478278160095215
I534
tp3058
a(F0.31807398796081543
I534
tp3059
a(F0.31531190872192383
I534
tp3060
a(F0.39426493644714355
I534
tp3061
a(F0.62952184677124023
I534
tp3062
a(F0.57587003707885742
I534
tp3063
a(F0.63958597183227539
I534
tp3064
a(F0.73367214202880859
I534
tp3065
a(F0.64497995376586914
I534
tp3066
a(F0.56798410415649414
I534
tp3067
a(F0.56140303611755371
I534
tp3068
a(F0.48253297805786133
I534
tp3069
a(F0.48499703407287598
I534
tp3070
a(F0.56219291687011719
I534
tp3071
a(F0.64243078231811523
I534
tp3072
a(F0.64153385162353516
I534
tp3073
a(F0.6454770565032959
I534
tp3074
a(F0.71986103057861328
I534
tp3075
a(F0.71972298622131348
I534
tp3076
a(F0.72396016120910645
I534
tp3077
a(F0.47325491905212402
I534
tp3078
a(F0.47196197509765625
I534
tp3079
a(F0.4730379581451416
I534
tp3080
a(F0.47135591506958008
I534
tp3081
a(F0.47126197814941406
I534
tp3082
a(F0.47284603118896484
I534
tp3083
a(F0.39417290687561035
I534
tp3084
a(F0.39389801025390625
I534
tp3085
a(F0.39399409294128418
I534
tp3086
a(F0.47176694869995117
I534
tp3087
a(F0.39401602745056152
I534
tp3088
a(F0.39437603950500488
I534
tp3089
a(F0.47102189064025879
I534
tp3090
a(F0.4750971794128418
I534
tp3091
a(F0.31516218185424805
I534
tp3092
a(F0.31836199760437012
I534
tp3093
a(F0.31530904769897461
I534
tp3094
a(F0.39488792419433594
I534
tp3095
a(F0.39445614814758301
I534
tp3096
a(F0.48360705375671387
I534
tp3097
a(F0.40604901313781738
I534
tp3098
a(F0.24910497665405273
I534
tp3099
a(F0.31491518020629883
I534
tp3100
a(F0.4733128547668457
I534
tp3101
a(F0.47145295143127441
I534
tp3102
a(F0.47442102432250977
I534
tp3103
a(F0.47076106071472168
I534
tp3104
a(F0.47124505043029785
I534
tp3105
a(F0.47407388687133789
I534
tp3106
a(F0.47321414947509766
I534
tp3107
a(F0.48808193206787109
I534
tp3108
a(F0.16646885871887207
I534
tp3109
a(F0.33873510360717773
I534
tp3110
a(F0.55949497222900391
I534
tp3111
a(F0.48270702362060547
I534
tp3112
a(F0.32644510269165039
I534
tp3113
a(F0.6316070556640625
I534
tp3114
a(F0.55677413940429688
I534
tp3115
a(F0.56226110458374023
I534
tp3116
a(F0.47450089454650879
I534
tp3117
a(F0.39482212066650391
I534
tp3118
a(F0.55646800994873047
I534
tp3119
a(F0.49845600128173828
I534
tp3120
a(F0.39985108375549316
I534
tp3121
a(F0.57469892501831055
I535
tp3122
a(F0.5731661319732666
I536
tp3123
a(F0.48842096328735352
I536
tp3124
a(F0.57612800598144531
I537
tp3125
a(F0.55842304229736328
I539
tp3126
a(F0.40768599510192871
I539
tp3127
a(F0.32544112205505371
I539
tp3128
a(F0.40486598014831543
I539
tp3129
a(F0.32563281059265137
I539
tp3130
a(F0.32462310791015625
I540
tp3131
a(F0.40350699424743652
I541
tp3132
a(F0.40505480766296387
I541
tp3133
a(F0.40524506568908691
I542
tp3134
a(F0.49814510345458984
I542
tp3135
a(F0.4075620174407959
I542
tp3136
a(F0.4086761474609375
I542
tp3137
a(F0.49189591407775879
I543
tp3138
a(F0.49220418930053711
I543
tp3139
a(F0.50250506401062012
I543
tp3140
a(F0.49406194686889648
I543
tp3141
a(F0.49340415000915527
I543
tp3142
a(F0.41498184204101562
I543
tp3143
a(F0.41101408004760742
I543
tp3144
a(F0.48895406723022461
I545
tp3145
a(F0.49255990982055664
I545
tp3146
a(F0.41469097137451172
I545
tp3147
a(F0.32822394371032715
I545
tp3148
a(F0.41262412071228027
I545
tp3149
a(F0.33446407318115234
I545
tp3150
a(F0.33199977874755859
I545
tp3151
a(F0.32994294166564941
I545
tp3152
a(F0.2492680549621582
I545
tp3153
a(F0.25040602684020996
I545
tp3154
a(F0.32806611061096191
I546
tp3155
a(F0.25123310089111328
I546
tp3156
a(F0.16698694229125977
I546
tp3157
a(F0.25252008438110352
I546
tp3158
a(F0.16762208938598633
I546
tp3159
a(F0.33484697341918945
I547
tp3160
a(F0.25363707542419434
I547
tp3161
a(F0.2547600269317627
I547
tp3162
a(F0.16959095001220703
I547
tp3163
a(F0.17132687568664551
I547
tp3164
a(F0.088815927505493164
I547
tp3165
a(F0.16948294639587402
I548
tp3166
a(F0.086175203323364258
I548
tp3167
a(F0.17051005363464355
I548
tp3168
a(F0.086205959320068359
I548
tp3169
a(F0.25259280204772949
I549
tp3170
a(F0.16905593872070312
I549
tp3171
a(F0.17358207702636719
I549
tp3172
a(F0.088850975036621094
I549
tp3173
a(F0.25052094459533691
I551
tp3174
a(F0.34376287460327148
I551
tp3175
a(F0.42644095420837402
I552
tp3176
a(F0.25954103469848633
I552
tp3177
a(F0.25679922103881836
I552
tp3178
a(F0.25861191749572754
I552
tp3179
a(F0.25589704513549805
I552
tp3180
a(F0.25629091262817383
I552
tp3181
a(F0.3400108814239502
I553
tp3182
a(F0.34069705009460449
I553
tp3183
a(F0.33865809440612793
I553
tp3184
a(F0.34161901473999023
I553
tp3185
a(F0.25532412528991699
I553
tp3186
a(F0.25913596153259277
I553
tp3187
a(F0.25641107559204102
I553
tp3188
a(F0.25548005104064941
I553
tp3189
a(F0.25544404983520508
I553
tp3190
a(F0.17290210723876953
I553
tp3191
a(F0.17276501655578613
I553
tp3192
a(F0.088591814041137695
I553
tp3193
a(F0.089977025985717773
I553
tp3194
a(F0.1730809211730957
I553
tp3195
a(F0.087277889251708984
I553
tp3196
a(F0.089756965637207031
I553
tp3197
a(F0.0044698715209960938
I553
tp3198
a(F0.25770711898803711
I553
tp3199
a(F0.35373592376708984
I553
tp3200
a(F0.0046279430389404297
I553
tp3201
a(F0.0042819976806640625
I553
tp3202
a(F0.34935092926025391
I553
tp3203
a(F0.26383185386657715
I553
tp3204
a(F0.27779293060302734
I553
tp3205
a(F0.26418900489807129
I553
tp3206
a(F0.26923298835754395
I553
tp3207
a(F0.26467180252075195
I553
tp3208
a(F0.17513704299926758
I553
tp3209
a(F0.42429900169372559
I553
tp3210
a(F0.424468994140625
I553
tp3211
a(F0.42433905601501465
I553
tp3212
a(F0.42638611793518066
I553
tp3213
a(F0.34327483177185059
I553
tp3214
a(F0.34290790557861328
I553
tp3215
a(F0.34099817276000977
I553
tp3216
a(F0.42398309707641602
I553
tp3217
a(F0.42429494857788086
I553
tp3218
a(F0.36052107810974121
I553
tp3219
a(F0.2572791576385498
I553
tp3220
a(F0.34129714965820312
I553
tp3221
a(F0.33931207656860352
I553
tp3222
a(F0.34103894233703613
I553
tp3223
a(F0.34095001220703125
I553
tp3224
a(F0.33863711357116699
I553
tp3225
a(F0.34162616729736328
I553
tp3226
a(F0.34027504920959473
I553
tp3227
a(F0.33875298500061035
I553
tp3228
a(F0.340576171875
I553
tp3229
a(F0.17317295074462891
I553
tp3230
a(F0.25565886497497559
I553
tp3231
a(F0.42385315895080566
I553
tp3232
a(F0.42563796043395996
I553
tp3233
a(F0.42690801620483398
I553
tp3234
a(F0.42376494407653809
I553
tp3235
a(F0.42381000518798828
I553
tp3236
a(F0.34128785133361816
I553
tp3237
a(F0.42430305480957031
I553
tp3238
a(F0.59221792221069336
I553
tp3239
a(F0.42406487464904785
I553
tp3240
a(F0.42369794845581055
I553
tp3241
a(F0.33996701240539551
I553
tp3242
a(F0.42455792427062988
I553
tp3243
a(F0.59185099601745605
I553
tp3244
a(F0.67646479606628418
I553
tp3245
a(F0.59262585639953613
I553
tp3246
a(F0.50703215599060059
I553
tp3247
a(F0.42502593994140625
I553
tp3248
a(F0.50855898857116699
I553
tp3249
a(F0.5096590518951416
I553
tp3250
a(F0.42472004890441895
I553
tp3251
a(F0.59234094619750977
I553
tp3252
a(F0.59237289428710938
I553
tp3253
a(F0.50770401954650879
I553
tp3254
a(F0.68461704254150391
I553
tp3255
a(F0.59415102005004883
I553
tp3256
a(F0.68023800849914551
I553
tp3257
a(F0.59311819076538086
I553
tp3258
a(F0.59201598167419434
I553
tp3259
a(F0.68828415870666504
I553
tp3260
a(F0.67987895011901855
I553
tp3261
a(F0.59006810188293457
I553
tp3262
a(F0.68541598320007324
I553
tp3263
a(F0.68869686126708984
I553
tp3264
a(F0.42384600639343262
I553
tp3265
a(F0.34486508369445801
I554
tp3266
a(F0.26491212844848633
I554
tp3267
a(F0.26618003845214844
I554
tp3268
a(F0.25963306427001953
I554
tp3269
a(F0.25876998901367188
I554
tp3270
a(F0.34342002868652344
I555
tp3271
a(F0.3529517650604248
I555
tp3272
a(F0.52754902839660645
I557
tp3273
a(F0.51904702186584473
I557
tp3274
a(F0.51781702041625977
I557
tp3275
a(F0.42999887466430664
I557
tp3276
a(F0.5196080207824707
I558
tp3277
a(F0.52132010459899902
I559
tp3278
a(F0.43627810478210449
I559
tp3279
a(F0.52534604072570801
I559
tp3280
a(F0.43996405601501465
I559
tp3281
a(F0.28065800666809082
I559
tp3282
a(F0.26774692535400391
I559
tp3283
a(F0.26362490653991699
I559
tp3284
a(F0.26320719718933105
I559
tp3285
a(F0.26594209671020508
I559
tp3286
a(F0.263092041015625
I559
tp3287
a(F0.17795491218566895
I559
tp3288
a(F0.17759895324707031
I559
tp3289
a(F0.090329170227050781
I559
tp3290
a(F0.092221975326538086
I559
tp3291
a(F0.17528581619262695
I559
tp3292
a(F0.092361211776733398
I559
tp3293
a(F0.17812800407409668
I559
tp3294
a(F0.34894394874572754
I559
tp3295
a(F0.61135196685791016
I559
tp3296
a(F0.61015486717224121
I559
tp3297
a(F0.78117585182189941
I559
tp3298
a.