(lp1
(F0.013769149780273438
I6
tp2
a(F0.10213899612426758
I8
tp3
a(F0.010385990142822266
I8
tp4
a(F0.0077948570251464844
I8
tp5
a(F0.0058820247650146484
I8
tp6
a(F0.0079929828643798828
I8
tp7
a(F0.0077109336853027344
I8
tp8
a(F0.0063700675964355469
I8
tp9
a(F0.0020329952239990234
I8
tp10
a(F0.00514984130859375
I9
tp11
a(F0.00768280029296875
I10
tp12
a(F0.0062229633331298828
I10
tp13
a(F0.0060820579528808594
I10
tp14
a(F0.0058720111846923828
I10
tp15
a(F0.0022001266479492188
I10
tp16
a(F0.0021941661834716797
I10
tp17
a(F0.0025739669799804688
I11
tp18
a(F0.0041289329528808594
I12
tp19
a(F0.0020630359649658203
I12
tp20
a(F0.0033121109008789062
I12
tp21
a(F0.0021071434020996094
I12
tp22
a(F0.0017549991607666016
I12
tp23
a(F0.0017449855804443359
I12
tp24
a(F0.0025050640106201172
I12
tp25
a(F0.0017340183258056641
I12
tp26
a(F0.0039410591125488281
I15
tp27
a(F0.0044970512390136719
I15
tp28
a(F0.0039861202239990234
I15
tp29
a(F0.0049128532409667969
I16
tp30
a(F0.0026988983154296875
I16
tp31
a(F0.0028779506683349609
I17
tp32
a(F0.0028839111328125
I17
tp33
a(F0.0056908130645751953
I17
tp34
a(F0.0056400299072265625
I18
tp35
a(F0.0077888965606689453
I19
tp36
a(F0.0033550262451171875
I19
tp37
a(F0.0063560009002685547
I19
tp38
a(F0.0046470165252685547
I19
tp39
a(F0.0058500766754150391
I20
tp40
a(F0.0056471824645996094
I20
tp41
a(F0.0043931007385253906
I20
tp42
a(F0.0059399604797363281
I20
tp43
a(F0.0045499801635742188
I20
tp44
a(F0.0024509429931640625
I20
tp45
a(F0.0030038356781005859
I21
tp46
a(F0.0070638656616210938
I22
tp47
a(F0.0029139518737792969
I22
tp48
a(F0.0044770240783691406
I22
tp49
a(F0.0047559738159179688
I22
tp50
a(F0.0052218437194824219
I23
tp51
a(F0.0054800510406494141
I23
tp52
a(F0.0030791759490966797
I23
tp53
a(F0.0030820369720458984
I23
tp54
a(F0.0045440196990966797
I23
tp55
a(F0.0029408931732177734
I23
tp56
a(F0.0044569969177246094
I24
tp57
a(F0.0038990974426269531
I24
tp58
a(F0.00444793701171875
I25
tp59
a(F0.0093870162963867188
I25
tp60
a(F0.0048031806945800781
I26
tp61
a(F0.0085358619689941406
I26
tp62
a(F0.0038411617279052734
I26
tp63
a(F0.0032229423522949219
I26
tp64
a(F0.0053539276123046875
I26
tp65
a(F0.0053420066833496094
I26
tp66
a(F0.0054631233215332031
I26
tp67
a(F0.0057070255279541016
I27
tp68
a(F0.0025320053100585938
I27
tp69
a(F0.005146026611328125
I28
tp70
a(F0.0053789615631103516
I29
tp71
a(F0.004550933837890625
I29
tp72
a(F0.00450897216796875
I29
tp73
a(F0.00592803955078125
I29
tp74
a(F0.0046629905700683594
I29
tp75
a(F0.0041711330413818359
I29
tp76
a(F0.0038998126983642578
I29
tp77
a(F0.0031378269195556641
I29
tp78
a(F0.0048010349273681641
I30
tp79
a(F0.0033829212188720703
I30
tp80
a(F0.0049159526824951172
I31
tp81
a(F0.0049550533294677734
I31
tp82
a(F0.0066301822662353516
I32
tp83
a(F0.0042340755462646484
I32
tp84
a(F0.0041739940643310547
I32
tp85
a(F0.0039870738983154297
I33
tp86
a(F0.0075969696044921875
I33
tp87
a(F0.0042350292205810547
I33
tp88
a(F0.0042321681976318359
I34
tp89
a(F0.0085711479187011719
I34
tp90
a(F0.0042860507965087891
I34
tp91
a(F0.0062489509582519531
I34
tp92
a(F0.0082128047943115234
I34
tp93
a(F0.010221958160400391
I35
tp94
a(F0.011170148849487305
I35
tp95
a(F0.0058488845825195312
I36
tp96
a(F0.008769989013671875
I36
tp97
a(F0.010119915008544922
I36
tp98
a(F0.0092399120330810547
I36
tp99
a(F0.0044410228729248047
I36
tp100
a(F0.0099670886993408203
I37
tp101
a(F0.010099172592163086
I38
tp102
a(F0.01059412956237793
I38
tp103
a(F0.010573863983154297
I38
tp104
a(F0.010680913925170898
I38
tp105
a(F0.0089719295501708984
I38
tp106
a(F0.0089280605316162109
I38
tp107
a(F0.0093038082122802734
I38
tp108
a(F0.0074911117553710938
I38
tp109
a(F0.0073790550231933594
I38
tp110
a(F0.0048491954803466797
I39
tp111
a(F0.0052278041839599609
I41
tp112
a(F0.0055010318756103516
I42
tp113
a(F0.0070528984069824219
I42
tp114
a(F0.0062940120697021484
I42
tp115
a(F0.0094258785247802734
I43
tp116
a(F0.0064940452575683594
I43
tp117
a(F0.012897968292236328
I44
tp118
a(F0.006465911865234375
I44
tp119
a(F0.013003826141357422
I44
tp120
a(F0.011308193206787109
I45
tp121
a(F0.0089359283447265625
I47
tp122
a(F0.012529134750366211
I47
tp123
a(F0.011752128601074219
I47
tp124
a(F0.011680841445922852
I48
tp125
a(F0.012147903442382812
I48
tp126
a(F0.011466026306152344
I50
tp127
a(F0.010820865631103516
I50
tp128
a(F0.0093350410461425781
I50
tp129
a(F0.0080039501190185547
I50
tp130
a(F0.0088829994201660156
I52
tp131
a(F0.0057709217071533203
I52
tp132
a(F0.0088210105895996094
I52
tp133
a(F0.010011911392211914
I52
tp134
a(F0.011415004730224609
I53
tp135
a(F0.0098009109497070312
I53
tp136
a(F0.011089086532592773
I54
tp137
a(F0.011157989501953125
I55
tp138
a(F0.0081200599670410156
I55
tp139
a(F0.0069189071655273438
I55
tp140
a(F0.010219097137451172
I56
tp141
a(F0.0097370147705078125
I58
tp142
a(F0.0096020698547363281
I58
tp143
a(F0.0061259269714355469
I58
tp144
a(F0.0084121227264404297
I58
tp145
a(F0.0084650516510009766
I58
tp146
a(F0.0088610649108886719
I58
tp147
a(F0.0041110515594482422
I58
tp148
a(F0.011039018630981445
I59
tp149
a(F0.0080089569091796875
I59
tp150
a(F0.0089480876922607422
I59
tp151
a(F0.0084860324859619141
I59
tp152
a(F0.0031578540802001953
I59
tp153
a(F0.003971099853515625
I60
tp154
a(F0.0043780803680419922
I60
tp155
a(F0.0068311691284179688
I60
tp156
a(F0.0063960552215576172
I60
tp157
a(F0.0075631141662597656
I60
tp158
a(F0.0063238143920898438
I60
tp159
a(F0.0063061714172363281
I60
tp160
a(F0.0021579265594482422
I60
tp161
a(F0.0021510124206542969
I60
tp162
a(F0.0011007785797119141
I60
tp163
a(F0.0014760494232177734
I60
tp164
a(F0.00099897384643554688
I60
tp165
a(F0.0015687942504882812
I60
tp166
a(F0.001544952392578125
I60
tp167
a(F0.0014410018920898438
I60
tp168
a(F0.0017800331115722656
I60
tp169
a(F0.0015690326690673828
I60
tp170
a(F0.0014150142669677734
I60
tp171
a(F0.0015621185302734375
I60
tp172
a(F0.0041840076446533203
I60
tp173
a(F0.0060811042785644531
I60
tp174
a(F0.0061628818511962891
I60
tp175
a(F0.0085499286651611328
I60
tp176
a(F0.0042500495910644531
I60
tp177
a(F0.0054099559783935547
I60
tp178
a(F0.0032420158386230469
I60
tp179
a(F0.0084760189056396484
I60
tp180
a(F0.0042319297790527344
I60
tp181
a(F0.0033040046691894531
I60
tp182
a(F0.0062720775604248047
I60
tp183
a(F0.0048050880432128906
I60
tp184
a(F0.0031809806823730469
I60
tp185
a(F0.0060069561004638672
I60
tp186
a(F0.0047099590301513672
I60
tp187
a(F0.0075080394744873047
I60
tp188
a(F0.0064160823822021484
I60
tp189
a(F0.0048449039459228516
I60
tp190
a(F0.0066111087799072266
I60
tp191
a(F0.006320953369140625
I60
tp192
a(F0.0054240226745605469
I60
tp193
a(F0.0070958137512207031
I60
tp194
a(F0.0084409713745117188
I60
tp195
a(F0.0088579654693603516
I60
tp196
a(F0.0033409595489501953
I60
tp197
a(F0.0044829845428466797
I60
tp198
a(F0.0051198005676269531
I61
tp199
a(F0.0054621696472167969
I62
tp200
a(F0.0085570812225341797
I62
tp201
a(F0.019352912902832031
I62
tp202
a(F0.0092859268188476562
I62
tp203
a(F0.012537956237792969
I62
tp204
a(F0.016615867614746094
I62
tp205
a(F0.013124942779541016
I62
tp206
a(F0.010257959365844727
I63
tp207
a(F0.0079259872436523438
I63
tp208
a(F0.01778101921081543
I64
tp209
a(F0.017292976379394531
I64
tp210
a(F0.020159006118774414
I64
tp211
a(F0.007862091064453125
I64
tp212
a(F0.011862993240356445
I64
tp213
a(F0.0069630146026611328
I64
tp214
a(F0.0081930160522460938
I65
tp215
a(F0.0092861652374267578
I66
tp216
a(F0.010455846786499023
I66
tp217
a(F0.0073320865631103516
I66
tp218
a(F0.0083339214324951172
I66
tp219
a(F0.0085251331329345703
I67
tp220
a(F0.0093119144439697266
I69
tp221
a(F0.0062329769134521484
I70
tp222
a(F0.0074431896209716797
I71
tp223
a(F0.015825986862182617
I73
tp224
a(F0.010680198669433594
I73
tp225
a(F0.017158985137939453
I73
tp226
a(F0.010462045669555664
I73
tp227
a(F0.0091309547424316406
I73
tp228
a(F0.0097141265869140625
I73
tp229
a(F0.010217189788818359
I73
tp230
a(F0.006443023681640625
I73
tp231
a(F0.0068271160125732422
I73
tp232
a(F0.0068840980529785156
I73
tp233
a(F0.0080561637878417969
I73
tp234
a(F0.0054159164428710938
I73
tp235
a(F0.0039670467376708984
I73
tp236
a(F0.0058169364929199219
I73
tp237
a(F0.0058290958404541016
I73
tp238
a(F0.0056791305541992188
I73
tp239
a(F0.0023238658905029297
I73
tp240
a(F0.0022249221801757812
I73
tp241
a(F0.0021309852600097656
I73
tp242
a(F0.0022790431976318359
I73
tp243
a(F0.0022809505462646484
I73
tp244
a(F0.0022702217102050781
I73
tp245
a(F0.0020592212677001953
I73
tp246
a(F0.002471923828125
I73
tp247
a(F0.0032410621643066406
I73
tp248
a(F0.0048642158508300781
I73
tp249
a(F0.0041761398315429688
I73
tp250
a(F0.011123180389404297
I73
tp251
a(F0.021734952926635742
I73
tp252
a(F0.02248692512512207
I73
tp253
a(F0.0080530643463134766
I73
tp254
a(F0.0080599784851074219
I73
tp255
a(F0.0092689990997314453
I73
tp256
a(F0.018851995468139648
I73
tp257
a(F0.02013707160949707
I73
tp258
a(F0.013057947158813477
I73
tp259
a(F0.011430025100708008
I73
tp260
a(F0.010329008102416992
I73
tp261
a(F0.00516510009765625
I73
tp262
a(F0.0053830146789550781
I73
tp263
a(F0.010519027709960938
I73
tp264
a(F0.010852813720703125
I73
tp265
a(F0.011013984680175781
I73
tp266
a(F0.0075640678405761719
I73
tp267
a(F0.0072350502014160156
I73
tp268
a(F0.0039908885955810547
I73
tp269
a(F0.011041879653930664
I73
tp270
a(F0.010399103164672852
I73
tp271
a(F0.010408163070678711
I73
tp272
a(F0.01045989990234375
I73
tp273
a(F0.0051779747009277344
I73
tp274
a(F0.0042371749877929688
I73
tp275
a(F0.0049610137939453125
I73
tp276
a(F0.0051310062408447266
I73
tp277
a(F0.0039038658142089844
I73
tp278
a(F0.0084259510040283203
I75
tp279
a(F0.013628005981445312
I75
tp280
a(F0.0082011222839355469
I75
tp281
a(F0.0041480064392089844
I75
tp282
a(F0.0068700313568115234
I75
tp283
a(F0.0079290866851806641
I76
tp284
a(F0.0082149505615234375
I77
tp285
a(F0.0069260597229003906
I77
tp286
a(F0.0085661411285400391
I77
tp287
a(F0.0084378719329833984
I77
tp288
a(F0.012213945388793945
I78
tp289
a(F0.0086629390716552734
I78
tp290
a(F0.0087301731109619141
I78
tp291
a(F0.01300501823425293
I78
tp292
a(F0.015147924423217773
I78
tp293
a(F0.00887298583984375
I78
tp294
a(F0.010230064392089844
I78
tp295
a(F0.0086100101470947266
I78
tp296
a(F0.0092329978942871094
I78
tp297
a(F0.010687828063964844
I78
tp298
a(F0.0088148117065429688
I78
tp299
a(F0.0060889720916748047
I78
tp300
a(F0.0060491561889648438
I78
tp301
a(F0.0060870647430419922
I78
tp302
a(F0.0064208507537841797
I78
tp303
a(F0.0028340816497802734
I78
tp304
a(F0.0027270317077636719
I78
tp305
a(F0.0015909671783447266
I78
tp306
a(F0.0011608600616455078
I78
tp307
a(F0.0012750625610351562
I78
tp308
a(F0.0011661052703857422
I78
tp309
a(F0.0014841556549072266
I78
tp310
a(F0.0013740062713623047
I78
tp311
a(F0.0015101432800292969
I78
tp312
a(F0.001544952392578125
I78
tp313
a(F0.0039739608764648438
I78
tp314
a(F0.0028350353240966797
I78
tp315
a(F0.0083050727844238281
I78
tp316
a(F0.010034084320068359
I79
tp317
a(F0.015191078186035156
I79
tp318
a(F0.019148826599121094
I79
tp319
a(F0.0086400508880615234
I79
tp320
a(F0.0073888301849365234
I79
tp321
a(F0.0098600387573242188
I80
tp322
a(F0.0075130462646484375
I80
tp323
a(F0.01057887077331543
I80
tp324
a(F0.010811090469360352
I80
tp325
a(F0.0099859237670898438
I80
tp326
a(F0.01341700553894043
I80
tp327
a(F0.013309001922607422
I80
tp328
a(F0.014752864837646484
I80
tp329
a(F0.016640901565551758
I80
tp330
a(F0.008625030517578125
I80
tp331
a(F0.0157318115234375
I80
tp332
a(F0.015222787857055664
I80
tp333
a(F0.01435399055480957
I80
tp334
a(F0.015911102294921875
I80
tp335
a(F0.0074100494384765625
I80
tp336
a(F0.0086700916290283203
I80
tp337
a(F0.017432928085327148
I80
tp338
a(F0.007244110107421875
I80
tp339
a(F0.0073270797729492188
I80
tp340
a(F0.0087659358978271484
I80
tp341
a(F0.0088961124420166016
I80
tp342
a(F0.0089008808135986328
I80
tp343
a(F0.0088291168212890625
I80
tp344
a(F0.010415077209472656
I80
tp345
a(F0.0073351860046386719
I80
tp346
a(F0.0058829784393310547
I80
tp347
a(F0.0089421272277832031
I80
tp348
a(F0.010380983352661133
I80
tp349
a(F0.010277032852172852
I80
tp350
a(F0.013293981552124023
I80
tp351
a(F0.013720035552978516
I80
tp352
a(F0.013303041458129883
I80
tp353
a(F0.011461973190307617
I80
tp354
a(F0.0075280666351318359
I80
tp355
a(F0.0073339939117431641
I80
tp356
a(F0.014612913131713867
I80
tp357
a(F0.0089120864868164062
I80
tp358
a(F0.0090558528900146484
I80
tp359
a(F0.016366004943847656
I80
tp360
a(F0.0087430477142333984
I80
tp361
a(F0.010757923126220703
I80
tp362
a(F0.010509014129638672
I80
tp363
a(F0.010390043258666992
I80
tp364
a(F0.014318943023681641
I80
tp365
a(F0.013728141784667969
I80
tp366
a(F0.012547969818115234
I80
tp367
a(F0.012597799301147461
I80
tp368
a(F0.015954971313476562
I80
tp369
a(F0.022573947906494141
I80
tp370
a(F0.024780988693237305
I81
tp371
a(F0.012774944305419922
I81
tp372
a(F0.012169122695922852
I81
tp373
a(F0.016644001007080078
I82
tp374
a(F0.014721155166625977
I82
tp375
a(F0.017304897308349609
I82
tp376
a(F0.010751008987426758
I82
tp377
a(F0.0077340602874755859
I82
tp378
a(F0.015733003616333008
I83
tp379
a(F0.018716096878051758
I84
tp380
a(F0.011403799057006836
I84
tp381
a(F0.011425971984863281
I84
tp382
a(F0.0096859931945800781
I84
tp383
a(F0.011027097702026367
I86
tp384
a(F0.0078599452972412109
I86
tp385
a(F0.0078649520874023438
I86
tp386
a(F0.016646862030029297
I86
tp387
a(F0.015779018402099609
I86
tp388
a(F0.0078670978546142578
I86
tp389
a(F0.00839996337890625
I86
tp390
a(F0.0080118179321289062
I86
tp391
a(F0.0062971115112304688
I86
tp392
a(F0.014683008193969727
I87
tp393
a(F0.011077880859375
I88
tp394
a(F0.010344028472900391
I88
tp395
a(F0.0084009170532226562
I88
tp396
a(F0.0095880031585693359
I89
tp397
a(F0.0099289417266845703
I89
tp398
a(F0.0098779201507568359
I89
tp399
a(F0.012317180633544922
I89
tp400
a(F0.0083079338073730469
I89
tp401
a(F0.010123968124389648
I89
tp402
a(F0.0098230838775634766
I89
tp403
a(F0.016371965408325195
I89
tp404
a(F0.0066850185394287109
I89
tp405
a(F0.0049810409545898438
I89
tp406
a(F0.0049571990966796875
I89
tp407
a(F0.0049760341644287109
I89
tp408
a(F0.0059289932250976562
I89
tp409
a(F0.0060839653015136719
I89
tp410
a(F0.0062148571014404297
I89
tp411
a(F0.0038950443267822266
I89
tp412
a(F0.003849029541015625
I89
tp413
a(F0.0049841403961181641
I89
tp414
a(F0.0065710544586181641
I89
tp415
a(F0.013089179992675781
I89
tp416
a(F0.024991035461425781
I89
tp417
a(F0.012197971343994141
I89
tp418
a(F0.015060186386108398
I89
tp419
a(F0.010167121887207031
I89
tp420
a(F0.0108489990234375
I89
tp421
a(F0.01641392707824707
I89
tp422
a(F0.018128156661987305
I89
tp423
a(F0.0099129676818847656
I89
tp424
a(F0.013483047485351562
I89
tp425
a(F0.02425384521484375
I89
tp426
a(F0.010046958923339844
I89
tp427
a(F0.011801004409790039
I89
tp428
a(F0.0081980228424072266
I89
tp429
a(F0.0080289840698242188
I89
tp430
a(F0.0067830085754394531
I89
tp431
a(F0.0090448856353759766
I89
tp432
a(F0.015376806259155273
I89
tp433
a(F0.020143032073974609
I89
tp434
a(F0.014570951461791992
I89
tp435
a(F0.010373115539550781
I89
tp436
a(F0.0099217891693115234
I89
tp437
a(F0.017821073532104492
I89
tp438
a(F0.016380071640014648
I89
tp439
a(F0.015036106109619141
I89
tp440
a(F0.015326976776123047
I90
tp441
a(F0.014529943466186523
I90
tp442
a(F0.014774084091186523
I90
tp443
a(F0.015384912490844727
I90
tp444
a(F0.012172222137451172
I90
tp445
a(F0.011987924575805664
I90
tp446
a(F0.012877225875854492
I90
tp447
a(F0.010197162628173828
I91
tp448
a(F0.0085339546203613281
I91
tp449
a(F0.017354965209960938
I91
tp450
a(F0.010367870330810547
I91
tp451
a(F0.010385036468505859
I91
tp452
a(F0.0087110996246337891
I91
tp453
a(F0.010344028472900391
I91
tp454
a(F0.010366916656494141
I91
tp455
a(F0.010385036468505859
I91
tp456
a(F0.015983819961547852
I93
tp457
a(F0.012936115264892578
I93
tp458
a(F0.010761022567749023
I93
tp459
a(F0.012976169586181641
I94
tp460
a(F0.013192892074584961
I95
tp461
a(F0.027348041534423828
I95
tp462
a(F0.01767420768737793
I95
tp463
a(F0.012965917587280273
I95
tp464
a(F0.024544954299926758
I95
tp465
a(F0.028023958206176758
I96
tp466
a(F0.0091619491577148438
I96
tp467
a(F0.016729116439819336
I96
tp468
a(F0.013260841369628906
I97
tp469
a(F0.014632940292358398
I97
tp470
a(F0.014580011367797852
I97
tp471
a(F0.013857841491699219
I97
tp472
a(F0.014387130737304688
I97
tp473
a(F0.019382953643798828
I97
tp474
a(F0.014308929443359375
I97
tp475
a(F0.011568069458007812
I97
tp476
a(F0.020352840423583984
I98
tp477
a(F0.011279106140136719
I98
tp478
a(F0.014755964279174805
I99
tp479
a(F0.020559787750244141
I101
tp480
a(F0.012269020080566406
I101
tp481
a(F0.013373851776123047
I103
tp482
a(F0.011924028396606445
I104
tp483
a(F0.012418985366821289
I104
tp484
a(F0.010262966156005859
I104
tp485
a(F0.010262966156005859
I104
tp486
a(F0.01033782958984375
I104
tp487
a(F0.013599157333374023
I105
tp488
a(F0.016849994659423828
I106
tp489
a(F0.013443946838378906
I106
tp490
a(F0.012936115264892578
I106
tp491
a(F0.012488842010498047
I107
tp492
a(F0.023688793182373047
I107
tp493
a(F0.026432991027832031
I107
tp494
a(F0.015027999877929688
I108
tp495
a(F0.023454904556274414
I109
tp496
a(F0.015513181686401367
I109
tp497
a(F0.017114162445068359
I109
tp498
a(F0.019587993621826172
I109
tp499
a(F0.013320207595825195
I109
tp500
a(F0.019373893737792969
I110
tp501
a(F0.01418614387512207
I110
tp502
a(F0.014605998992919922
I110
tp503
a(F0.015537023544311523
I111
tp504
a(F0.013884067535400391
I111
tp505
a(F0.014325857162475586
I111
tp506
a(F0.020577907562255859
I111
tp507
a(F0.011137008666992188
I111
tp508
a(F0.014858007431030273
I111
tp509
a(F0.014549970626831055
I111
tp510
a(F0.018393039703369141
I111
tp511
a(F0.0093169212341308594
I111
tp512
a(F0.024518013000488281
I112
tp513
a(F0.019033193588256836
I112
tp514
a(F0.01291203498840332
I112
tp515
a(F0.0091769695281982422
I112
tp516
a(F0.016005039215087891
I112
tp517
a(F0.0078129768371582031
I112
tp518
a(F0.0080118179321289062
I112
tp519
a(F0.0077850818634033203
I112
tp520
a(F0.0078339576721191406
I112
tp521
a(F0.0014250278472900391
I112
tp522
a(F0.0039730072021484375
I113
tp523
a(F0.0027649402618408203
I113
tp524
a(F0.0080969333648681641
I113
tp525
a(F0.0015671253204345703
I113
tp526
a(F0.0042910575866699219
I113
tp527
a(F0.0015389919281005859
I113
tp528
a(F0.0015439987182617188
I113
tp529
a(F0.0041670799255371094
I113
tp530
a(F0.01013493537902832
I113
tp531
a(F0.014096975326538086
I113
tp532
a(F0.014129877090454102
I113
tp533
a(F0.014225959777832031
I113
tp534
a(F0.011765956878662109
I113
tp535
a(F0.013965845108032227
I113
tp536
a(F0.012763023376464844
I113
tp537
a(F0.0092539787292480469
I113
tp538
a(F0.0089910030364990234
I113
tp539
a(F0.011540889739990234
I113
tp540
a(F0.016520977020263672
I113
tp541
a(F0.011409997940063477
I113
tp542
a(F0.017028093338012695
I113
tp543
a(F0.014460086822509766
I113
tp544
a(F0.016988039016723633
I113
tp545
a(F0.011598110198974609
I113
tp546
a(F0.011523008346557617
I113
tp547
a(F0.014694929122924805
I113
tp548
a(F0.014111042022705078
I113
tp549
a(F0.011718988418579102
I113
tp550
a(F0.014070987701416016
I113
tp551
a(F0.011723995208740234
I113
tp552
a(F0.012041091918945312
I113
tp553
a(F0.011358976364135742
I113
tp554
a(F0.010010004043579102
I113
tp555
a(F0.0091900825500488281
I113
tp556
a(F0.0066118240356445312
I113
tp557
a(F0.0081729888916015625
I113
tp558
a(F0.011104106903076172
I113
tp559
a(F0.011816978454589844
I113
tp560
a(F0.011763095855712891
I113
tp561
a(F0.011945962905883789
I113
tp562
a(F0.014235019683837891
I113
tp563
a(F0.0094051361083984375
I113
tp564
a(F0.0065069198608398438
I113
tp565
a(F0.014455080032348633
I113
tp566
a(F0.014919042587280273
I113
tp567
a(F0.0090589523315429688
I113
tp568
a(F0.0091509819030761719
I113
tp569
a(F0.0092711448669433594
I113
tp570
a(F0.0091779232025146484
I113
tp571
a(F0.0092558860778808594
I113
tp572
a(F0.010892152786254883
I113
tp573
a(F0.0079910755157470703
I113
tp574
a(F0.019521951675415039
I113
tp575
a(F0.011696100234985352
I113
tp576
a(F0.019857168197631836
I113
tp577
a(F0.019536972045898438
I113
tp578
a(F0.02367091178894043
I114
tp579
a(F0.016397953033447266
I115
tp580
a(F0.017094135284423828
I115
tp581
a(F0.016482114791870117
I115
tp582
a(F0.028425931930541992
I115
tp583
a(F0.016514062881469727
I116
tp584
a(F0.01700901985168457
I116
tp585
a(F0.017147064208984375
I116
tp586
a(F0.017167091369628906
I116
tp587
a(F0.012220144271850586
I116
tp588
a(F0.014492034912109375
I116
tp589
a(F0.013870954513549805
I116
tp590
a(F0.018072843551635742
I117
tp591
a(F0.026028156280517578
I119
tp592
a(F0.025513887405395508
I120
tp593
a(F0.025913000106811523
I120
tp594
a(F0.025133132934570312
I120
tp595
a(F0.02089691162109375
I121
tp596
a(F0.018543004989624023
I121
tp597
a(F0.021302938461303711
I122
tp598
a(F0.019129037857055664
I122
tp599
a(F0.020637035369873047
I122
tp600
a(F0.028688192367553711
I122
tp601
a(F0.031321048736572266
I123
tp602
a(F0.018924951553344727
I123
tp603
a(F0.033792972564697266
I124
tp604
a(F0.036532878875732422
I125
tp605
a(F0.034004926681518555
I125
tp606
a(F0.025642871856689453
I126
tp607
a(F0.025377035140991211
I126
tp608
a(F0.026122093200683594
I127
tp609
a(F0.026132106781005859
I127
tp610
a(F0.03174901008605957
I127
tp611
a(F0.028599023818969727
I128
tp612
a(F0.029855012893676758
I128
tp613
a(F0.028251886367797852
I128
tp614
a(F0.031279802322387695
I128
tp615
a(F0.016770839691162109
I129
tp616
a(F0.017512083053588867
I129
tp617
a(F0.014786958694458008
I129
tp618
a(F0.020369052886962891
I130
tp619
a(F0.021366119384765625
I130
tp620
a(F0.017566919326782227
I130
tp621
a(F0.019654989242553711
I130
tp622
a(F0.017920017242431641
I131
tp623
a(F0.025441169738769531
I132
tp624
a(F0.026113986968994141
I133
tp625
a(F0.024307966232299805
I133
tp626
a(F0.028542041778564453
I135
tp627
a(F0.017096042633056641
I135
tp628
a(F0.025352954864501953
I136
tp629
a(F0.030530929565429688
I138
tp630
a(F0.021358013153076172
I139
tp631
a(F0.017791986465454102
I139
tp632
a(F0.021873950958251953
I139
tp633
a(F0.028526067733764648
I139
tp634
a(F0.032214164733886719
I140
tp635
a(F0.020692825317382812
I140
tp636
a(F0.019257783889770508
I140
tp637
a(F0.020408153533935547
I140
tp638
a(F0.027959108352661133
I141
tp639
a(F0.018782138824462891
I141
tp640
a(F0.024342060089111328
I141
tp641
a(F0.014190912246704102
I141
tp642
a(F0.013808012008666992
I141
tp643
a(F0.010221958160400391
I141
tp644
a(F0.01200413703918457
I141
tp645
a(F0.011964082717895508
I141
tp646
a(F0.0099949836730957031
I141
tp647
a(F0.0017960071563720703
I141
tp648
a(F0.0016930103302001953
I141
tp649
a(F0.0016710758209228516
I141
tp650
a(F0.0018019676208496094
I141
tp651
a(F0.0016751289367675781
I141
tp652
a(F0.014745950698852539
I141
tp653
a(F0.01381993293762207
I141
tp654
a(F0.017729997634887695
I141
tp655
a(F0.022184133529663086
I141
tp656
a(F0.020529985427856445
I141
tp657
a(F0.020920038223266602
I141
tp658
a(F0.027633905410766602
I141
tp659
a(F0.033833980560302734
I142
tp660
a(F0.010094881057739258
I142
tp661
a(F0.0069499015808105469
I142
tp662
a(F0.010175943374633789
I142
tp663
a(F0.014060020446777344
I142
tp664
a(F0.014911890029907227
I142
tp665
a(F0.015149116516113281
I142
tp666
a(F0.014201164245605469
I142
tp667
a(F0.018583059310913086
I142
tp668
a(F0.019056797027587891
I142
tp669
a(F0.018203973770141602
I142
tp670
a(F0.018899917602539062
I142
tp671
a(F0.023756980895996094
I143
tp672
a(F0.028548955917358398
I143
tp673
a(F0.027852058410644531
I143
tp674
a(F0.026130914688110352
I143
tp675
a(F0.025906085968017578
I143
tp676
a(F0.023126125335693359
I143
tp677
a(F0.017698049545288086
I143
tp678
a(F0.026507854461669922
I143
tp679
a(F0.032683134078979492
I143
tp680
a(F0.032048940658569336
I143
tp681
a(F0.028065919876098633
I143
tp682
a(F0.02219390869140625
I143
tp683
a(F0.026256799697875977
I143
tp684
a(F0.030998945236206055
I143
tp685
a(F0.034976005554199219
I146
tp686
a(F0.039247035980224609
I146
tp687
a(F0.031220912933349609
I146
tp688
a(F0.031839847564697266
I147
tp689
a(F0.032773971557617188
I147
tp690
a(F0.027931928634643555
I147
tp691
a(F0.041846990585327148
I150
tp692
a(F0.029792070388793945
I150
tp693
a(F0.025175094604492188
I150
tp694
a(F0.023569107055664062
I150
tp695
a(F0.042337179183959961
I150
tp696
a(F0.042310953140258789
I150
tp697
a(F0.020100116729736328
I150
tp698
a(F0.032757997512817383
I150
tp699
a(F0.023010969161987305
I150
tp700
a(F0.021908998489379883
I150
tp701
a(F0.011509895324707031
I150
tp702
a(F0.01105809211730957
I150
tp703
a(F0.011497974395751953
I150
tp704
a(F0.011964797973632812
I150
tp705
a(F0.0096719264984130859
I150
tp706
a(F0.0018620491027832031
I150
tp707
a(F0.0017600059509277344
I150
tp708
a(F0.0017402172088623047
I150
tp709
a(F0.0078830718994140625
I150
tp710
a(F0.0066850185394287109
I150
tp711
a(F0.0089080333709716797
I150
tp712
a(F0.00386810302734375
I150
tp713
a(F0.0025038719177246094
I150
tp714
a(F0.0028071403503417969
I150
tp715
a(F0.023249149322509766
I150
tp716
a(F0.041897058486938477
I150
tp717
a(F0.020871162414550781
I150
tp718
a(F0.024588108062744141
I150
tp719
a(F0.023303031921386719
I150
tp720
a(F0.020156145095825195
I150
tp721
a(F0.021229028701782227
I150
tp722
a(F0.020548105239868164
I150
tp723
a(F0.027573823928833008
I150
tp724
a(F0.028257131576538086
I150
tp725
a(F0.028701066970825195
I151
tp726
a(F0.016937017440795898
I151
tp727
a(F0.0081510543823242188
I151
tp728
a(F0.03793787956237793
I152
tp729
a(F0.031888961791992188
I152
tp730
a(F0.035260200500488281
I152
tp731
a(F0.021420001983642578
I152
tp732
a(F0.02541804313659668
I153
tp733
a(F0.025150060653686523
I153
tp734
a(F0.02938389778137207
I153
tp735
a(F0.016295909881591797
I153
tp736
a(F0.016676902770996094
I153
tp737
a(F0.024165153503417969
I153
tp738
a(F0.021365880966186523
I153
tp739
a(F0.025336980819702148
I153
tp740
a(F0.035948038101196289
I153
tp741
a(F0.030539035797119141
I153
tp742
a(F0.016483068466186523
I153
tp743
a(F0.016828060150146484
I154
tp744
a(F0.017424106597900391
I154
tp745
a(F0.011559009552001953
I154
tp746
a(F0.011785984039306641
I154
tp747
a(F0.011983156204223633
I154
tp748
a(F0.0070919990539550781
I154
tp749
a(F0.0070722103118896484
I154
tp750
a(F0.0022938251495361328
I154
tp751
a(F0.0023729801177978516
I154
tp752
a(F0.0034849643707275391
I154
tp753
a(F0.0035669803619384766
I154
tp754
a(F0.0033550262451171875
I154
tp755
a(F0.001750946044921875
I154
tp756
a(F0.0018928050994873047
I154
tp757
a(F0.0039820671081542969
I154
tp758
a(F0.0035359859466552734
I154
tp759
a(F0.0017678737640380859
I154
tp760
a(F0.0070121288299560547
I154
tp761
a(F0.019338130950927734
I154
tp762
a(F0.034362077713012695
I154
tp763
a(F0.038034915924072266
I154
tp764
a(F0.03823399543762207
I154
tp765
a(F0.025201082229614258
I154
tp766
a(F0.030433893203735352
I154
tp767
a(F0.030719995498657227
I154
tp768
a(F0.021792888641357422
I154
tp769
a(F0.021534919738769531
I154
tp770
a(F0.029810905456542969
I154
tp771
a(F0.026308059692382812
I154
tp772
a(F0.034460067749023438
I154
tp773
a(F0.032947063446044922
I154
tp774
a(F0.025578975677490234
I154
tp775
a(F0.018451929092407227
I154
tp776
a(F0.025577068328857422
I154
tp777
a(F0.037967920303344727
I154
tp778
a(F0.051311969757080078
I154
tp779
a(F0.040776968002319336
I154
tp780
a(F0.044445037841796875
I154
tp781
a(F0.067096948623657227
I154
tp782
a(F0.040899038314819336
I154
tp783
a(F0.035912036895751953
I154
tp784
a(F0.017457008361816406
I154
tp785
a(F0.016115903854370117
I154
tp786
a(F0.034300088882446289
I157
tp787
a(F0.047410964965820312
I159
tp788
a(F0.032874107360839844
I159
tp789
a(F0.038173913955688477
I159
tp790
a(F0.039592981338500977
I159
tp791
a(F0.041714906692504883
I159
tp792
a(F0.043216943740844727
I160
tp793
a(F0.042937040328979492
I161
tp794
a(F0.043467044830322266
I162
tp795
a(F0.050701141357421875
I163
tp796
a(F0.058526039123535156
I163
tp797
a(F0.066064119338989258
I164
tp798
a(F0.063315153121948242
I166
tp799
a(F0.060626983642578125
I166
tp800
a(F0.057616949081420898
I167
tp801
a(F0.063328981399536133
I167
tp802
a(F0.064182043075561523
I167
tp803
a(F0.14838385581970215
I170
tp804
a(F0.088876008987426758
I170
tp805
a(F0.069561958312988281
I170
tp806
a(F0.066335916519165039
I172
tp807
a(F0.048673152923583984
I172
tp808
a(F0.032256841659545898
I172
tp809
a(F0.020981073379516602
I172
tp810
a(F0.019682884216308594
I172
tp811
a(F0.022045135498046875
I172
tp812
a(F0.019704103469848633
I172
tp813
a(F0.02001190185546875
I172
tp814
a(F0.016052007675170898
I172
tp815
a(F0.01446986198425293
I172
tp816
a(F0.0086739063262939453
I172
tp817
a(F0.0020458698272705078
I172
tp818
a(F0.0020611286163330078
I172
tp819
a(F0.0019140243530273438
I172
tp820
a(F0.002777099609375
I172
tp821
a(F0.0029881000518798828
I172
tp822
a(F0.0040640830993652344
I172
tp823
a(F0.0019171237945556641
I172
tp824
a(F0.0020420551300048828
I172
tp825
a(F0.0020380020141601562
I172
tp826
a(F0.0019259452819824219
I172
tp827
a(F0.0029850006103515625
I172
tp828
a(F0.0085818767547607422
I172
tp829
a(F0.028619050979614258
I172
tp830
a(F0.035462141036987305
I173
tp831
a(F0.035718917846679688
I173
tp832
a(F0.040564060211181641
I173
tp833
a(F0.020963907241821289
I173
tp834
a(F0.021559000015258789
I173
tp835
a(F0.032960891723632812
I173
tp836
a(F0.027887105941772461
I173
tp837
a(F0.033074140548706055
I173
tp838
a(F0.026246070861816406
I173
tp839
a(F0.030874967575073242
I174
tp840
a(F0.030626058578491211
I174
tp841
a(F0.033169984817504883
I175
tp842
a(F0.039041996002197266
I175
tp843
a(F0.039433956146240234
I175
tp844
a(F0.063655853271484375
I177
tp845
a(F0.060811996459960938
I177
tp846
a(F0.044790983200073242
I177
tp847
a(F0.045684099197387695
I177
tp848
a(F0.033071994781494141
I177
tp849
a(F0.030059099197387695
I177
tp850
a(F0.0387420654296875
I177
tp851
a(F0.040508031845092773
I177
tp852
a(F0.021095991134643555
I177
tp853
a(F0.022964000701904297
I177
tp854
a(F0.02110600471496582
I177
tp855
a(F0.021069049835205078
I177
tp856
a(F0.028631925582885742
I177
tp857
a(F0.026185989379882812
I177
tp858
a(F0.015061140060424805
I177
tp859
a(F0.013015985488891602
I177
tp860
a(F0.014062166213989258
I177
tp861
a(F0.021389007568359375
I177
tp862
a(F0.0020008087158203125
I177
tp863
a(F0.0020718574523925781
I177
tp864
a(F0.0020608901977539062
I177
tp865
a(F0.0029819011688232422
I177
tp866
a(F0.0028138160705566406
I177
tp867
a(F0.0029988288879394531
I177
tp868
a(F0.0019559860229492188
I177
tp869
a(F0.0020899772644042969
I177
tp870
a(F0.010505914688110352
I177
tp871
a(F0.032903909683227539
I177
tp872
a(F0.029450893402099609
I177
tp873
a(F0.028421163558959961
I177
tp874
a(F0.028133153915405273
I177
tp875
a(F0.027166843414306641
I177
tp876
a(F0.028209924697875977
I177
tp877
a(F0.033355951309204102
I177
tp878
a(F0.034433126449584961
I177
tp879
a(F0.029280185699462891
I177
tp880
a(F0.042588949203491211
I177
tp881
a(F0.027360916137695312
I177
tp882
a(F0.027181863784790039
I177
tp883
a(F0.021729946136474609
I177
tp884
a(F0.056653022766113281
I177
tp885
a(F0.06167292594909668
I177
tp886
a(F0.053322076797485352
I177
tp887
a(F0.051106929779052734
I177
tp888
a(F0.057804107666015625
I177
tp889
a(F0.081093072891235352
I177
tp890
a(F0.051814079284667969
I177
tp891
a(F0.056459903717041016
I177
tp892
a(F0.052026987075805664
I177
tp893
a(F0.040696144104003906
I177
tp894
a(F0.039973020553588867
I177
tp895
a(F0.038405179977416992
I177
tp896
a(F0.032853841781616211
I177
tp897
a(F0.040374040603637695
I177
tp898
a(F0.039292097091674805
I177
tp899
a(F0.034206867218017578
I177
tp900
a(F0.039634943008422852
I177
tp901
a(F0.038357973098754883
I177
tp902
a(F0.064090967178344727
I177
tp903
a(F0.035032033920288086
I177
tp904
a(F0.065981149673461914
I177
tp905
a(F0.051442146301269531
I177
tp906
a(F0.038501977920532227
I177
tp907
a(F0.052442073822021484
I177
tp908
a(F0.053529977798461914
I177
tp909
a(F0.054931879043579102
I177
tp910
a(F0.056272029876708984
I177
tp911
a(F0.068986892700195312
I177
tp912
a(F0.053489923477172852
I177
tp913
a(F0.059669017791748047
I177
tp914
a(F0.048012018203735352
I177
tp915
a(F0.03911900520324707
I177
tp916
a(F0.038149833679199219
I177
tp917
a(F0.034674882888793945
I177
tp918
a(F0.035269975662231445
I177
tp919
a(F0.036594152450561523
I177
tp920
a(F0.040651082992553711
I177
tp921
a(F0.039226055145263672
I177
tp922
a(F0.033004045486450195
I177
tp923
a(F0.035418033599853516
I177
tp924
a(F0.039630889892578125
I177
tp925
a(F0.052336215972900391
I177
tp926
a(F0.060494899749755859
I177
tp927
a(F0.045946121215820312
I177
tp928
a(F0.057760000228881836
I177
tp929
a(F0.060109853744506836
I177
tp930
a(F0.052018880844116211
I177
tp931
a(F0.04113006591796875
I177
tp932
a(F0.038991928100585938
I177
tp933
a(F0.042963981628417969
I177
tp934
a(F0.054626941680908203
I177
tp935
a(F0.059377193450927734
I177
tp936
a(F0.059260845184326172
I177
tp937
a(F0.05155181884765625
I177
tp938
a(F0.052217960357666016
I177
tp939
a(F0.059031963348388672
I177
tp940
a(F0.065566062927246094
I179
tp941
a(F0.046251058578491211
I179
tp942
a(F0.039669990539550781
I179
tp943
a(F0.04419708251953125
I179
tp944
a(F0.04041600227355957
I180
tp945
a(F0.039448976516723633
I181
tp946
a(F0.056890010833740234
I181
tp947
a(F0.065557956695556641
I181
tp948
a(F0.046905040740966797
I181
tp949
a(F0.042947053909301758
I181
tp950
a(F0.047739982604980469
I181
tp951
a(F0.082378864288330078
I183
tp952
a(F0.03705906867980957
I183
tp953
a(F0.042745113372802734
I183
tp954
a(F0.042718172073364258
I183
tp955
a(F0.042893171310424805
I183
tp956
a(F0.036466121673583984
I183
tp957
a(F0.029860973358154297
I183
tp958
a(F0.030087947845458984
I183
tp959
a(F0.03723597526550293
I184
tp960
a(F0.03763890266418457
I184
tp961
a(F0.038634061813354492
I184
tp962
a(F0.036457061767578125
I184
tp963
a(F0.040029048919677734
I185
tp964
a(F0.036025047302246094
I185
tp965
a(F0.031885862350463867
I185
tp966
a(F0.038486957550048828
I186
tp967
a(F0.046165943145751953
I187
tp968
a(F0.045773029327392578
I187
tp969
a(F0.064576864242553711
I187
tp970
a(F0.047185182571411133
I187
tp971
a(F0.053390026092529297
I188
tp972
a(F0.05472111701965332
I189
tp973
a(F0.026462078094482422
I189
tp974
a(F0.033941030502319336
I189
tp975
a(F0.070382118225097656
I191
tp976
a(F0.066629886627197266
I191
tp977
a(F0.044932842254638672
I191
tp978
a(F0.040460109710693359
I191
tp979
a(F0.065911054611206055
I193
tp980
a(F0.057096004486083984
I193
tp981
a(F0.052384853363037109
I193
tp982
a(F0.05034184455871582
I194
tp983
a(F0.05149388313293457
I194
tp984
a(F0.050615072250366211
I194
tp985
a(F0.051536798477172852
I194
tp986
a(F0.042349100112915039
I194
tp987
a(F0.045608997344970703
I194
tp988
a(F0.051939010620117188
I195
tp989
a(F0.03573298454284668
I195
tp990
a(F0.036288022994995117
I196
tp991
a(F0.046705961227416992
I197
tp992
a(F0.037558078765869141
I198
tp993
a(F0.056384086608886719
I199
tp994
a(F0.081823110580444336
I199
tp995
a(F0.082639932632446289
I199
tp996
a(F0.047964096069335938
I199
tp997
a(F0.052730083465576172
I199
tp998
a(F0.062585830688476562
I199
tp999
a(F0.05798792839050293
I200
tp1000
a(F0.047544002532958984
I200
tp1001
a(F0.049167156219482422
I201
tp1002
a(F0.057208061218261719
I201
tp1003
a(F0.056524038314819336
I201
tp1004
a(F0.047709941864013672
I201
tp1005
a(F0.039177894592285156
I201
tp1006
a(F0.048122167587280273
I202
tp1007
a(F0.048809051513671875
I202
tp1008
a(F0.039642095565795898
I202
tp1009
a(F0.050260066986083984
I202
tp1010
a(F0.051588058471679688
I203
tp1011
a(F0.039342880249023438
I204
tp1012
a(F0.040311098098754883
I204
tp1013
a(F0.040295839309692383
I204
tp1014
a(F0.050085067749023438
I205
tp1015
a(F0.032435178756713867
I205
tp1016
a(F0.032090187072753906
I205
tp1017
a(F0.022524118423461914
I205
tp1018
a(F0.022352933883666992
I205
tp1019
a(F0.03152012825012207
I205
tp1020
a(F0.035575151443481445
I206
tp1021
a(F0.037476062774658203
I206
tp1022
a(F0.040064096450805664
I206
tp1023
a(F0.050274133682250977
I206
tp1024
a(F0.031839847564697266
I206
tp1025
a(F0.032006978988647461
I206
tp1026
a(F0.041344881057739258
I207
tp1027
a(F0.022768020629882812
I207
tp1028
a(F0.059873104095458984
I208
tp1029
a(F0.058154821395874023
I208
tp1030
a(F0.039225101470947266
I208
tp1031
a(F0.019371986389160156
I208
tp1032
a(F0.033624887466430664
I209
tp1033
a(F0.053790092468261719
I210
tp1034
a(F0.063916921615600586
I211
tp1035
a(F0.053616046905517578
I211
tp1036
a(F0.043607950210571289
I211
tp1037
a(F0.054053068161010742
I212
tp1038
a(F0.055022001266479492
I212
tp1039
a(F0.087476015090942383
I214
tp1040
a(F0.077079057693481445
I215
tp1041
a(F0.090342044830322266
I215
tp1042
a(F0.10413599014282227
I215
tp1043
a(F0.055269956588745117
I215
tp1044
a(F0.045963048934936523
I215
tp1045
a(F0.056850910186767578
I216
tp1046
a(F0.056809902191162109
I216
tp1047
a(F0.057157039642333984
I216
tp1048
a(F0.057117938995361328
I216
tp1049
a(F0.049162149429321289
I216
tp1050
a(F0.046456098556518555
I216
tp1051
a(F0.046820878982543945
I216
tp1052
a(F0.056509971618652344
I217
tp1053
a(F0.068253993988037109
I218
tp1054
a(F0.069546937942504883
I219
tp1055
a(F0.058933019638061523
I219
tp1056
a(F0.059096813201904297
I219
tp1057
a(F0.058012008666992188
I220
tp1058
a(F0.051430940628051758
I220
tp1059
a(F0.049379825592041016
I220
tp1060
a(F0.059152126312255859
I221
tp1061
a(F0.053917884826660156
I221
tp1062
a(F0.063171148300170898
I221
tp1063
a(F0.086260795593261719
I221
tp1064
a(F0.073248147964477539
I222
tp1065
a(F0.050826072692871094
I223
tp1066
a(F0.049970865249633789
I223
tp1067
a(F0.05379796028137207
I223
tp1068
a(F0.050370931625366211
I223
tp1069
a(F0.05086207389831543
I223
tp1070
a(F0.070306062698364258
I223
tp1071
a(F0.059453010559082031
I223
tp1072
a(F0.072408914566040039
I223
tp1073
a(F0.027115106582641602
I223
tp1074
a(F0.02647089958190918
I223
tp1075
a(F0.027627944946289062
I223
tp1076
a(F0.027897834777832031
I223
tp1077
a(F0.01630091667175293
I223
tp1078
a(F0.028223991394042969
I223
tp1079
a(F0.027760028839111328
I223
tp1080
a(F0.017449855804443359
I223
tp1081
a(F0.015173912048339844
I223
tp1082
a(F0.01727294921875
I223
tp1083
a(F0.015913963317871094
I223
tp1084
a(F0.016232013702392578
I223
tp1085
a(F0.015846014022827148
I223
tp1086
a(F0.022823810577392578
I223
tp1087
a(F0.071918010711669922
I224
tp1088
a(F0.06927490234375
I224
tp1089
a(F0.064414024353027344
I224
tp1090
a(F0.061528921127319336
I224
tp1091
a(F0.05027008056640625
I224
tp1092
a(F0.10095906257629395
I224
tp1093
a(F0.062099933624267578
I224
tp1094
a(F0.061872005462646484
I224
tp1095
a(F0.089686155319213867
I225
tp1096
a(F0.086675167083740234
I225
tp1097
a(F0.074135065078735352
I225
tp1098
a(F0.086971044540405273
I225
tp1099
a(F0.073888063430786133
I225
tp1100
a(F0.074789047241210938
I225
tp1101
a(F0.073758125305175781
I225
tp1102
a(F0.063220024108886719
I225
tp1103
a(F0.051526069641113281
I225
tp1104
a(F0.062897205352783203
I225
tp1105
a(F0.07441401481628418
I225
tp1106
a(F0.051233053207397461
I225
tp1107
a(F0.051637887954711914
I225
tp1108
a(F0.039898872375488281
I225
tp1109
a(F0.054575920104980469
I225
tp1110
a(F0.03966212272644043
I225
tp1111
a(F0.039583921432495117
I225
tp1112
a(F0.053864002227783203
I225
tp1113
a(F0.051985025405883789
I225
tp1114
a(F0.068086862564086914
I225
tp1115
a(F0.063410043716430664
I225
tp1116
a(F0.063225030899047852
I225
tp1117
a(F0.070868968963623047
I225
tp1118
a(F0.082823991775512695
I225
tp1119
a(F0.076370000839233398
I225
tp1120
a(F0.051550149917602539
I225
tp1121
a(F0.061185121536254883
I225
tp1122
a(F0.039280891418457031
I225
tp1123
a(F0.063930034637451172
I227
tp1124
a(F0.071620941162109375
I227
tp1125
a(F0.1264650821685791
I228
tp1126
a(F0.048550844192504883
I228
tp1127
a(F0.089905977249145508
I228
tp1128
a(F0.077541112899780273
I228
tp1129
a(F0.052646875381469727
I229
tp1130
a(F0.041429996490478516
I229
tp1131
a(F0.053494930267333984
I229
tp1132
a(F0.072092056274414062
I229
tp1133
a(F0.10497403144836426
I231
tp1134
a(F0.092932939529418945
I231
tp1135
a(F0.068855047225952148
I231
tp1136
a(F0.072371006011962891
I231
tp1137
a(F0.092736959457397461
I231
tp1138
a(F0.06881403923034668
I231
tp1139
a(F0.056896209716796875
I231
tp1140
a(F0.065968036651611328
I231
tp1141
a(F0.091706991195678711
I232
tp1142
a(F0.10733389854431152
I233
tp1143
a(F0.082010030746459961
I234
tp1144
a(F0.069352865219116211
I234
tp1145
a(F0.094748973846435547
I235
tp1146
a(F0.094871044158935547
I235
tp1147
a(F0.10866713523864746
I236
tp1148
a(F0.10922479629516602
I236
tp1149
a(F0.087126970291137695
I236
tp1150
a(F0.069527149200439453
I236
tp1151
a(F0.057996034622192383
I237
tp1152
a(F0.044031143188476562
I237
tp1153
a(F0.045238018035888672
I237
tp1154
a(F0.044285058975219727
I237
tp1155
a(F0.032650947570800781
I237
tp1156
a(F0.021037101745605469
I237
tp1157
a(F0.019896984100341797
I237
tp1158
a(F0.018184900283813477
I237
tp1159
a(F0.020818948745727539
I237
tp1160
a(F0.021717071533203125
I237
tp1161
a(F0.020221948623657227
I237
tp1162
a(F0.021126985549926758
I237
tp1163
a(F0.020994186401367188
I237
tp1164
a(F0.039380073547363281
I238
tp1165
a(F0.052243947982788086
I238
tp1166
a(F0.04474186897277832
I238
tp1167
a(F0.044286012649536133
I238
tp1168
a(F0.054982185363769531
I238
tp1169
a(F0.046495199203491211
I238
tp1170
a(F0.03347015380859375
I238
tp1171
a(F0.031164884567260742
I238
tp1172
a(F0.044744014739990234
I238
tp1173
a(F0.046397924423217773
I238
tp1174
a(F0.057423830032348633
I238
tp1175
a(F0.05129694938659668
I238
tp1176
a(F0.036237001419067383
I238
tp1177
a(F0.059916019439697266
I238
tp1178
a(F0.057219028472900391
I238
tp1179
a(F0.058588981628417969
I238
tp1180
a(F0.057029008865356445
I238
tp1181
a(F0.04499506950378418
I238
tp1182
a(F0.066559076309204102
I238
tp1183
a(F0.072213172912597656
I238
tp1184
a(F0.072710990905761719
I238
tp1185
a(F0.071320056915283203
I238
tp1186
a(F0.098415851593017578
I238
tp1187
a(F0.059364080429077148
I238
tp1188
a(F0.044770956039428711
I238
tp1189
a(F0.059194803237915039
I238
tp1190
a(F0.058775186538696289
I238
tp1191
a(F0.05880284309387207
I238
tp1192
a(F0.085376977920532227
I238
tp1193
a(F0.072350978851318359
I238
tp1194
a(F0.072422981262207031
I238
tp1195
a(F0.071722984313964844
I238
tp1196
a(F0.072181940078735352
I238
tp1197
a(F0.093248128890991211
I238
tp1198
a(F0.10363578796386719
I238
tp1199
a(F0.091643095016479492
I238
tp1200
a(F0.072650909423828125
I238
tp1201
a(F0.044610977172851562
I238
tp1202
a(F0.046350955963134766
I238
tp1203
a(F0.065747976303100586
I238
tp1204
a(F0.084506988525390625
I238
tp1205
a(F0.063391923904418945
I238
tp1206
a(F0.066277980804443359
I238
tp1207
a(F0.074302911758422852
I238
tp1208
a(F0.083748102188110352
I238
tp1209
a(F0.076002120971679688
I238
tp1210
a(F0.084556102752685547
I238
tp1211
a(F0.058515787124633789
I238
tp1212
a(F0.059121131896972656
I238
tp1213
a(F0.098855018615722656
I238
tp1214
a(F0.1111290454864502
I238
tp1215
a(F0.082248926162719727
I238
tp1216
a(F0.075787067413330078
I238
tp1217
a(F0.060687065124511719
I238
tp1218
a(F0.062644004821777344
I238
tp1219
a(F0.059559106826782227
I238
tp1220
a(F0.058549880981445312
I238
tp1221
a(F0.057847976684570312
I239
tp1222
a(F0.045989990234375
I239
tp1223
a(F0.064996957778930664
I240
tp1224
a(F0.060529947280883789
I240
tp1225
a(F0.077229022979736328
I241
tp1226
a(F0.074158906936645508
I242
tp1227
a(F0.076303005218505859
I242
tp1228
a(F0.076150894165039062
I242
tp1229
a(F0.11457109451293945
I242
tp1230
a(F0.093600034713745117
I242
tp1231
a(F0.062134027481079102
I242
tp1232
a(F0.080807924270629883
I242
tp1233
a(F0.045985937118530273
I242
tp1234
a(F0.060832023620605469
I243
tp1235
a(F0.069544076919555664
I243
tp1236
a(F0.069328069686889648
I243
tp1237
a(F0.099318981170654297
I244
tp1238
a(F0.068165063858032227
I244
tp1239
a(F0.096529006958007812
I244
tp1240
a(F0.096150875091552734
I244
tp1241
a(F0.090237855911254883
I244
tp1242
a(F0.072298049926757812
I245
tp1243
a(F0.062593936920166016
I245
tp1244
a(F0.078552961349487305
I246
tp1245
a(F0.078939914703369141
I246
tp1246
a(F0.076704025268554688
I246
tp1247
a(F0.065024852752685547
I246
tp1248
a(F0.077169895172119141
I247
tp1249
a(F0.064595937728881836
I247
tp1250
a(F0.080657005310058594
I247
tp1251
a(F0.063677072525024414
I247
tp1252
a(F0.08966517448425293
I248
tp1253
a(F0.079550981521606445
I248
tp1254
a(F0.064560890197753906
I248
tp1255
a(F0.068878889083862305
I248
tp1256
a(F0.064137935638427734
I248
tp1257
a(F0.083627939224243164
I248
tp1258
a(F0.10154390335083008
I250
tp1259
a(F0.084297895431518555
I250
tp1260
a(F0.084077119827270508
I250
tp1261
a(F0.084360122680664062
I250
tp1262
a(F0.06532597541809082
I250
tp1263
a(F0.081429958343505859
I251
tp1264
a(F0.083076953887939453
I251
tp1265
a(F0.09916996955871582
I252
tp1266
a(F0.088700056076049805
I252
tp1267
a(F0.08540797233581543
I252
tp1268
a(F0.086395978927612305
I252
tp1269
a(F0.067392110824584961
I252
tp1270
a(F0.084352016448974609
I253
tp1271
a(F0.10558700561523438
I254
tp1272
a(F0.11269092559814453
I254
tp1273
a(F0.12345719337463379
I254
tp1274
a(F0.091541051864624023
I254
tp1275
a(F0.08558201789855957
I254
tp1276
a(F0.098353862762451172
I254
tp1277
a(F0.099693059921264648
I255
tp1278
a(F0.12191414833068848
I255
tp1279
a(F0.086040973663330078
I255
tp1280
a(F0.084659099578857422
I255
tp1281
a(F0.081351041793823242
I255
tp1282
a(F0.083788871765136719
I255
tp1283
a(F0.086802005767822266
I256
tp1284
a(F0.053036928176879883
I256
tp1285
a(F0.070868968963623047
I256
tp1286
a(F0.095654010772705078
I256
tp1287
a(F0.084352970123291016
I257
tp1288
a(F0.087768077850341797
I257
tp1289
a(F0.086909055709838867
I257
tp1290
a(F0.071190834045410156
I257
tp1291
a(F0.056845903396606445
I257
tp1292
a(F0.053512096405029297
I257
tp1293
a(F0.053376913070678711
I257
tp1294
a(F0.071064949035644531
I258
tp1295
a(F0.071146011352539062
I259
tp1296
a(F0.088770866394042969
I259
tp1297
a(F0.072999000549316406
I259
tp1298
a(F0.091923952102661133
I259
tp1299
a(F0.083590030670166016
I260
tp1300
a(F0.088626861572265625
I260
tp1301
a(F0.096337080001831055
I260
tp1302
a(F0.089507818222045898
I260
tp1303
a(F0.072906970977783203
I260
tp1304
a(F0.072112798690795898
I260
tp1305
a(F0.090411901473999023
I261
tp1306
a(F0.073187112808227539
I261
tp1307
a(F0.090329885482788086
I262
tp1308
a(F0.09091496467590332
I262
tp1309
a(F0.090949058532714844
I262
tp1310
a(F0.11210489273071289
I263
tp1311
a(F0.14736509323120117
I264
tp1312
a(F0.092893838882446289
I264
tp1313
a(F0.10920095443725586
I265
tp1314
a(F0.093396186828613281
I265
tp1315
a(F0.093375921249389648
I265
tp1316
a(F0.11106991767883301
I265
tp1317
a(F0.12846708297729492
I266
tp1318
a(F0.094762086868286133
I266
tp1319
a(F0.11154913902282715
I267
tp1320
a(F0.13082599639892578
I268
tp1321
a(F0.11424803733825684
I268
tp1322
a(F0.11368298530578613
I268
tp1323
a(F0.13180804252624512
I269
tp1324
a(F0.11527085304260254
I269
tp1325
a(F0.11420893669128418
I269
tp1326
a(F0.11313796043395996
I270
tp1327
a(F0.12794089317321777
I270
tp1328
a(F0.10920000076293945
I270
tp1329
a(F0.098471879959106445
I270
tp1330
a(F0.12746596336364746
I271
tp1331
a(F0.097743988037109375
I271
tp1332
a(F0.1023719310760498
I271
tp1333
a(F0.11732983589172363
I272
tp1334
a(F0.11059308052062988
I272
tp1335
a(F0.11944198608398438
I272
tp1336
a(F0.12125301361083984
I273
tp1337
a(F0.099673032760620117
I273
tp1338
a(F0.081239938735961914
I273
tp1339
a(F0.10181713104248047
I273
tp1340
a(F0.13914012908935547
I275
tp1341
a(F0.14072394371032715
I275
tp1342
a(F0.12138986587524414
I275
tp1343
a(F0.10159182548522949
I275
tp1344
a(F0.12299704551696777
I275
tp1345
a(F0.10189390182495117
I275
tp1346
a(F0.10084104537963867
I275
tp1347
a(F0.10200905799865723
I275
tp1348
a(F0.10249209403991699
I275
tp1349
a(F0.11263918876647949
I276
tp1350
a(F0.081593036651611328
I276
tp1351
a(F0.083516120910644531
I276
tp1352
a(F0.084959030151367188
I276
tp1353
a(F0.083864927291870117
I276
tp1354
a(F0.085186004638671875
I276
tp1355
a(F0.08031010627746582
I276
tp1356
a(F0.043636798858642578
I276
tp1357
a(F0.043611049652099609
I276
tp1358
a(F0.043797969818115234
I276
tp1359
a(F0.055199861526489258
I276
tp1360
a(F0.033612966537475586
I276
tp1361
a(F0.032893896102905273
I276
tp1362
a(F0.048189878463745117
I276
tp1363
a(F0.028174877166748047
I276
tp1364
a(F0.027354001998901367
I276
tp1365
a(F0.024287939071655273
I276
tp1366
a(F0.0048871040344238281
I276
tp1367
a(F0.051433086395263672
I276
tp1368
a(F0.073084831237792969
I276
tp1369
a(F0.043061971664428711
I276
tp1370
a(F0.10721397399902344
I276
tp1371
a(F0.082698822021484375
I276
tp1372
a(F0.12157201766967773
I276
tp1373
a(F0.12231802940368652
I276
tp1374
a(F0.10213088989257812
I276
tp1375
a(F0.1221919059753418
I276
tp1376
a(F0.11675810813903809
I276
tp1377
a(F0.10268902778625488
I276
tp1378
a(F0.10227704048156738
I276
tp1379
a(F0.13887977600097656
I276
tp1380
a(F0.10443019866943359
I276
tp1381
a(F0.083790063858032227
I276
tp1382
a(F0.1223599910736084
I276
tp1383
a(F0.12098193168640137
I276
tp1384
a(F0.10310888290405273
I276
tp1385
a(F0.10257601737976074
I276
tp1386
a(F0.12393593788146973
I277
tp1387
a(F0.12421894073486328
I277
tp1388
a(F0.13458991050720215
I277
tp1389
a(F0.14162707328796387
I277
tp1390
a(F0.20079994201660156
I277
tp1391
a(F0.14454412460327148
I277
tp1392
a(F0.14206910133361816
I277
tp1393
a(F0.12265181541442871
I277
tp1394
a(F0.13565397262573242
I277
tp1395
a(F0.12408709526062012
I277
tp1396
a(F0.12137198448181152
I277
tp1397
a(F0.12299084663391113
I278
tp1398
a(F0.167572021484375
I278
tp1399
a(F0.18343901634216309
I279
tp1400
a(F0.22403097152709961
I279
tp1401
a(F0.15151190757751465
I279
tp1402
a(F0.17510104179382324
I280
tp1403
a(F0.10356378555297852
I282
tp1404
a(F0.15082406997680664
I282
tp1405
a(F0.12911486625671387
I282
tp1406
a(F0.15137600898742676
I282
tp1407
a(F0.12953615188598633
I282
tp1408
a(F0.12988805770874023
I282
tp1409
a(F0.15153384208679199
I282
tp1410
a(F0.10729479789733887
I282
tp1411
a(F0.086487054824829102
I282
tp1412
a(F0.11110615730285645
I283
tp1413
a(F0.10838913917541504
I284
tp1414
a(F0.11160802841186523
I285
tp1415
a(F0.13718700408935547
I285
tp1416
a(F0.11880898475646973
I285
tp1417
a(F0.14265704154968262
I285
tp1418
a(F0.16296219825744629
I286
tp1419
a(F0.11118698120117188
I287
tp1420
a(F0.15537285804748535
I287
tp1421
a(F0.15522503852844238
I287
tp1422
a(F0.18459296226501465
I288
tp1423
a(F0.13535094261169434
I289
tp1424
a(F0.14387202262878418
I290
tp1425
a(F0.14304018020629883
I290
tp1426
a(F0.13750720024108887
I290
tp1427
a(F0.11500382423400879
I290
tp1428
a(F0.11588788032531738
I290
tp1429
a(F0.11719703674316406
I290
tp1430
a(F0.1018528938293457
I290
tp1431
a(F0.093888044357299805
I290
tp1432
a(F0.092753887176513672
I290
tp1433
a(F0.074570178985595703
I290
tp1434
a(F0.071738958358764648
I290
tp1435
a(F0.09330296516418457
I290
tp1436
a(F0.070635080337524414
I290
tp1437
a(F0.094558000564575195
I291
tp1438
a(F0.070507049560546875
I291
tp1439
a(F0.070430994033813477
I291
tp1440
a(F0.049355030059814453
I291
tp1441
a(F0.047682046890258789
I291
tp1442
a(F0.048568010330200195
I291
tp1443
a(F0.048121929168701172
I291
tp1444
a(F0.054512977600097656
I291
tp1445
a(F0.030128002166748047
I291
tp1446
a(F0.027922153472900391
I291
tp1447
a(F0.025604009628295898
I291
tp1448
a(F0.028043031692504883
I291
tp1449
a(F0.0039951801300048828
I291
tp1450
a(F0.0029060840606689453
I291
tp1451
a(F0.0029001235961914062
I291
tp1452
a(F0.047995090484619141
I291
tp1453
a(F0.04767608642578125
I291
tp1454
a(F0.072599172592163086
I291
tp1455
a(F0.047743082046508789
I291
tp1456
a(F0.071220159530639648
I291
tp1457
a(F0.093212127685546875
I291
tp1458
a(F0.11267995834350586
I291
tp1459
a(F0.071399927139282227
I291
tp1460
a(F0.070924997329711914
I291
tp1461
a(F0.1149451732635498
I291
tp1462
a(F0.12865114212036133
I291
tp1463
a(F0.11539006233215332
I291
tp1464
a(F0.069062948226928711
I291
tp1465
a(F0.076715946197509766
I291
tp1466
a(F0.073382139205932617
I291
tp1467
a(F0.080896139144897461
I291
tp1468
a(F0.10568094253540039
I291
tp1469
a(F0.070919036865234375
I291
tp1470
a(F0.076632976531982422
I291
tp1471
a(F0.07146906852722168
I291
tp1472
a(F0.073024988174438477
I291
tp1473
a(F0.028832912445068359
I291
tp1474
a(F0.073267936706542969
I291
tp1475
a(F0.071027994155883789
I291
tp1476
a(F0.054054021835327148
I291
tp1477
a(F0.094948053359985352
I291
tp1478
a(F0.091488122940063477
I291
tp1479
a(F0.092365026473999023
I291
tp1480
a(F0.1157069206237793
I291
tp1481
a(F0.11448979377746582
I291
tp1482
a(F0.12989521026611328
I291
tp1483
a(F0.091877937316894531
I291
tp1484
a(F0.0713958740234375
I291
tp1485
a(F0.069736957550048828
I291
tp1486
a(F0.06937408447265625
I291
tp1487
a(F0.07134699821472168
I291
tp1488
a(F0.080616950988769531
I291
tp1489
a(F0.094813823699951172
I291
tp1490
a(F0.069492101669311523
I291
tp1491
a(F0.070621013641357422
I291
tp1492
a(F0.071965932846069336
I291
tp1493
a(F0.09273982048034668
I291
tp1494
a(F0.091464996337890625
I291
tp1495
a(F0.10373306274414062
I291
tp1496
a(F0.095683097839355469
I291
tp1497
a(F0.069101095199584961
I291
tp1498
a(F0.069878101348876953
I291
tp1499
a(F0.11467814445495605
I292
tp1500
a(F0.080476999282836914
I292
tp1501
a(F0.07365107536315918
I292
tp1502
a(F0.074322938919067383
I292
tp1503
a(F0.049183845520019531
I292
tp1504
a(F0.061680078506469727
I292
tp1505
a(F0.087199926376342773
I293
tp1506
a(F0.072052955627441406
I293
tp1507
a(F0.094573974609375
I294
tp1508
a(F0.096189975738525391
I294
tp1509
a(F0.095475912094116211
I294
tp1510
a(F0.073643922805786133
I294
tp1511
a(F0.071792125701904297
I294
tp1512
a(F0.072239160537719727
I294
tp1513
a(F0.11868405342102051
I296
tp1514
a(F0.097244977951049805
I296
tp1515
a(F0.1171410083770752
I296
tp1516
a(F0.11937093734741211
I296
tp1517
a(F0.12234783172607422
I296
tp1518
a(F0.11938309669494629
I296
tp1519
a(F0.097838878631591797
I296
tp1520
a(F0.097300052642822266
I296
tp1521
a(F0.11980605125427246
I297
tp1522
a(F0.11970400810241699
I297
tp1523
a(F0.098052024841308594
I297
tp1524
a(F0.074018001556396484
I297
tp1525
a(F0.096567153930664062
I298
tp1526
a(F0.12073802947998047
I299
tp1527
a(F0.13300013542175293
I299
tp1528
a(F0.12335896492004395
I299
tp1529
a(F0.12277007102966309
I299
tp1530
a(F0.14527297019958496
I300
tp1531
a(F0.12355184555053711
I300
tp1532
a(F0.13645100593566895
I300
tp1533
a(F0.12404704093933105
I301
tp1534
a(F0.10185003280639648
I301
tp1535
a(F0.12328600883483887
I301
tp1536
a(F0.14632892608642578
I302
tp1537
a(F0.099367141723632812
I302
tp1538
a(F0.12327289581298828
I302
tp1539
a(F0.12342405319213867
I302
tp1540
a(F0.12398481369018555
I302
tp1541
a(F0.097126007080078125
I302
tp1542
a(F0.12557387351989746
I303
tp1543
a(F0.12606501579284668
I303
tp1544
a(F0.10179996490478516
I303
tp1545
a(F0.12529087066650391
I304
tp1546
a(F0.15139293670654297
I305
tp1547
a(F0.16166901588439941
I305
tp1548
a(F0.15192604064941406
I305
tp1549
a(F0.12835097312927246
I305
tp1550
a(F0.12914514541625977
I305
tp1551
a(F0.1517338752746582
I305
tp1552
a(F0.12624287605285645
I305
tp1553
a(F0.15413308143615723
I307
tp1554
a(F0.15352296829223633
I307
tp1555
a(F0.12859702110290527
I307
tp1556
a(F0.1262819766998291
I308
tp1557
a(F0.15235090255737305
I309
tp1558
a(F0.20562195777893066
I309
tp1559
a(F0.21034908294677734
I309
tp1560
a(F0.20971798896789551
I309
tp1561
a(F0.15642118453979492
I309
tp1562
a(F0.15656018257141113
I309
tp1563
a(F0.15653014183044434
I309
tp1564
a(F0.13218998908996582
I309
tp1565
a(F0.15577292442321777
I310
tp1566
a(F0.13131523132324219
I311
tp1567
a(F0.16059207916259766
I311
tp1568
a(F0.13329410552978516
I311
tp1569
a(F0.17229199409484863
I311
tp1570
a(F0.16700911521911621
I311
tp1571
a(F0.15980696678161621
I311
tp1572
a(F0.19408607482910156
I312
tp1573
a(F0.1467440128326416
I312
tp1574
a(F0.16013288497924805
I313
tp1575
a(F0.16257214546203613
I313
tp1576
a(F0.16033101081848145
I313
tp1577
a(F0.16074490547180176
I314
tp1578
a(F0.13788986206054688
I314
tp1579
a(F0.13568997383117676
I314
tp1580
a(F0.1365668773651123
I314
tp1581
a(F0.13676190376281738
I314
tp1582
a(F0.1887810230255127
I316
tp1583
a(F0.13643288612365723
I316
tp1584
a(F0.1616060733795166
I316
tp1585
a(F0.16114521026611328
I316
tp1586
a(F0.13774204254150391
I316
tp1587
a(F0.16127705574035645
I316
tp1588
a(F0.13782691955566406
I316
tp1589
a(F0.16790103912353516
I318
tp1590
a(F0.16668486595153809
I318
tp1591
a(F0.16657710075378418
I318
tp1592
a(F0.1133420467376709
I318
tp1593
a(F0.16694188117980957
I319
tp1594
a(F0.16829395294189453
I319
tp1595
a(F0.20449090003967285
I319
tp1596
a(F0.14088892936706543
I319
tp1597
a(F0.14098596572875977
I319
tp1598
a(F0.14285707473754883
I319
tp1599
a(F0.17082691192626953
I321
tp1600
a(F0.15391993522644043
I321
tp1601
a(F0.14292693138122559
I321
tp1602
a(F0.11708903312683105
I321
tp1603
a(F0.16986608505249023
I322
tp1604
a(F0.1822819709777832
I323
tp1605
a(F0.25481796264648438
I324
tp1606
a(F0.25994682312011719
I325
tp1607
a(F0.18217802047729492
I325
tp1608
a(F0.18516397476196289
I325
tp1609
a(F0.17489409446716309
I325
tp1610
a(F0.20333695411682129
I326
tp1611
a(F0.20388913154602051
I327
tp1612
a(F0.14848518371582031
I327
tp1613
a(F0.14944195747375488
I328
tp1614
a(F0.12119197845458984
I328
tp1615
a(F0.12047910690307617
I329
tp1616
a(F0.09659886360168457
I329
tp1617
a(F0.082956075668334961
I329
tp1618
a(F0.15436983108520508
I330
tp1619
a(F0.15263891220092773
I331
tp1620
a(F0.16604518890380859
I331
tp1621
a(F0.079799175262451172
I331
tp1622
a(F0.064581155776977539
I331
tp1623
a(F0.087196111679077148
I331
tp1624
a(F0.064008951187133789
I331
tp1625
a(F0.066294193267822266
I331
tp1626
a(F0.093063116073608398
I333
tp1627
a(F0.12405800819396973
I334
tp1628
a(F0.12517809867858887
I334
tp1629
a(F0.14762592315673828
I334
tp1630
a(F0.13325810432434082
I334
tp1631
a(F0.11767697334289551
I334
tp1632
a(F0.063417911529541016
I334
tp1633
a(F0.093261003494262695
I335
tp1634
a(F0.093919992446899414
I335
tp1635
a(F0.094285964965820312
I335
tp1636
a(F0.0970458984375
I335
tp1637
a(F0.10642600059509277
I335
tp1638
a(F0.063757896423339844
I335
tp1639
a(F0.12257003784179688
I336
tp1640
a(F0.13935708999633789
I336
tp1641
a(F0.096343994140625
I336
tp1642
a(F0.066944122314453125
I336
tp1643
a(F0.067170143127441406
I336
tp1644
a(F0.074755191802978516
I336
tp1645
a(F0.066040992736816406
I336
tp1646
a(F0.068855047225952148
I336
tp1647
a(F0.065386056900024414
I336
tp1648
a(F0.072937965393066406
I336
tp1649
a(F0.10361218452453613
I337
tp1650
a(F0.073767900466918945
I337
tp1651
a(F0.064589977264404297
I337
tp1652
a(F0.097892999649047852
I338
tp1653
a(F0.09640192985534668
I338
tp1654
a(F0.064974069595336914
I338
tp1655
a(F0.099020004272460938
I339
tp1656
a(F0.10430693626403809
I339
tp1657
a(F0.097435951232910156
I339
tp1658
a(F0.096573829650878906
I339
tp1659
a(F0.097566843032836914
I339
tp1660
a(F0.10019898414611816
I339
tp1661
a(F0.097179889678955078
I339
tp1662
a(F0.06562495231628418
I339
tp1663
a(F0.03477787971496582
I339
tp1664
a(F0.034826993942260742
I339
tp1665
a(F0.036091804504394531
I339
tp1666
a(F0.035918951034545898
I339
tp1667
a(F0.035742998123168945
I339
tp1668
a(F0.049221038818359375
I339
tp1669
a(F0.0064408779144287109
I339
tp1670
a(F0.0066919326782226562
I339
tp1671
a(F0.0063588619232177734
I339
tp1672
a(F0.036180019378662109
I340
tp1673
a(F0.038955926895141602
I340
tp1674
a(F0.099171161651611328
I340
tp1675
a(F0.098544120788574219
I340
tp1676
a(F0.1288909912109375
I340
tp1677
a(F0.16862702369689941
I340
tp1678
a(F0.13034486770629883
I340
tp1679
a(F0.12896013259887695
I340
tp1680
a(F0.12890005111694336
I340
tp1681
a(F0.097471952438354492
I340
tp1682
a(F0.09899592399597168
I340
tp1683
a(F0.098957061767578125
I340
tp1684
a(F0.09862518310546875
I340
tp1685
a(F0.06568598747253418
I340
tp1686
a(F0.10114288330078125
I340
tp1687
a(F0.071402072906494141
I340
tp1688
a(F0.048701047897338867
I340
tp1689
a(F0.044723987579345703
I340
tp1690
a(F0.045995950698852539
I340
tp1691
a(F0.049052000045776367
I340
tp1692
a(F0.035328865051269531
I340
tp1693
a(F0.034721136093139648
I340
tp1694
a(F0.036480903625488281
I340
tp1695
a(F0.066285848617553711
I340
tp1696
a(F0.098752021789550781
I340
tp1697
a(F0.13157892227172852
I341
tp1698
a(F0.13342022895812988
I341
tp1699
a(F0.13228607177734375
I342
tp1700
a(F0.099138021469116211
I342
tp1701
a(F0.13291096687316895
I342
tp1702
a(F0.16860008239746094
I342
tp1703
a(F0.16566205024719238
I342
tp1704
a(F0.19638204574584961
I342
tp1705
a(F0.22797799110412598
I343
tp1706
a(F0.20114707946777344
I343
tp1707
a(F0.2061150074005127
I343
tp1708
a(F0.22443604469299316
I344
tp1709
a(F0.23346686363220215
I344
tp1710
a(F0.23283791542053223
I344
tp1711
a(F0.20010590553283691
I344
tp1712
a(F0.20108199119567871
I344
tp1713
a(F0.13832592964172363
I344
tp1714
a(F0.20177721977233887
I345
tp1715
a(F0.13716316223144531
I345
tp1716
a(F0.13623499870300293
I345
tp1717
a(F0.13625788688659668
I345
tp1718
a(F0.10314416885375977
I345
tp1719
a(F0.10116887092590332
I345
tp1720
a(F0.10158085823059082
I345
tp1721
a(F0.15105915069580078
I346
tp1722
a(F0.15372800827026367
I346
tp1723
a(F0.1288762092590332
I346
tp1724
a(F0.10152983665466309
I346
tp1725
a(F0.10184288024902344
I346
tp1726
a(F0.071485042572021484
I346
tp1727
a(F0.070341825485229492
I346
tp1728
a(F0.069557905197143555
I346
tp1729
a(F0.070260047912597656
I346
tp1730
a(F0.069483041763305664
I346
tp1731
a(F0.068627119064331055
I346
tp1732
a(F0.10275387763977051
I347
tp1733
a(F0.07196497917175293
I347
tp1734
a(F0.072944164276123047
I347
tp1735
a(F0.070225954055786133
I347
tp1736
a(F0.1025090217590332
I348
tp1737
a(F0.10489392280578613
I348
tp1738
a(F0.13565397262573242
I349
tp1739
a(F0.15106201171875
I349
tp1740
a(F0.10531091690063477
I349
tp1741
a(F0.070784091949462891
I349
tp1742
a(F0.070842981338500977
I349
tp1743
a(F0.07419586181640625
I349
tp1744
a(F0.070162057876586914
I349
tp1745
a(F0.072511196136474609
I349
tp1746
a(F0.071710109710693359
I349
tp1747
a(F0.097403049468994141
I349
tp1748
a(F0.067869901657104492
I349
tp1749
a(F0.040503978729248047
I349
tp1750
a(F0.05157017707824707
I349
tp1751
a(F0.0048699378967285156
I349
tp1752
a(F0.0049791336059570312
I349
tp1753
a(F0.0049428939819335938
I349
tp1754
a(F0.037195920944213867
I349
tp1755
a(F0.070495128631591797
I349
tp1756
a(F0.071866035461425781
I349
tp1757
a(F0.10539889335632324
I349
tp1758
a(F0.1047968864440918
I349
tp1759
a(F0.10383796691894531
I349
tp1760
a(F0.10234618186950684
I349
tp1761
a(F0.10534906387329102
I349
tp1762
a(F0.11520600318908691
I349
tp1763
a(F0.081059932708740234
I349
tp1764
a(F0.091084957122802734
I349
tp1765
a(F0.071218013763427734
I349
tp1766
a(F0.092520952224731445
I349
tp1767
a(F0.1144721508026123
I349
tp1768
a(F0.1038968563079834
I349
tp1769
a(F0.13920307159423828
I349
tp1770
a(F0.13764286041259766
I349
tp1771
a(F0.17157101631164551
I349
tp1772
a(F0.13898301124572754
I349
tp1773
a(F0.20399785041809082
I349
tp1774
a(F0.1629481315612793
I349
tp1775
a(F0.15955185890197754
I349
tp1776
a(F0.10289502143859863
I349
tp1777
a(F0.1070561408996582
I349
tp1778
a(F0.17412900924682617
I349
tp1779
a(F0.17327499389648438
I349
tp1780
a(F0.17363977432250977
I349
tp1781
a(F0.16992402076721191
I349
tp1782
a(F0.2055962085723877
I349
tp1783
a(F0.24697113037109375
I349
tp1784
a(F0.17287492752075195
I349
tp1785
a(F0.23818802833557129
I349
tp1786
a(F0.13714194297790527
I349
tp1787
a(F0.13800501823425293
I349
tp1788
a(F0.10477018356323242
I349
tp1789
a(F0.10422801971435547
I349
tp1790
a(F0.1054229736328125
I349
tp1791
a(F0.10479497909545898
I349
tp1792
a(F0.10449099540710449
I349
tp1793
a(F0.10533595085144043
I349
tp1794
a(F0.10505294799804688
I349
tp1795
a(F0.10414409637451172
I349
tp1796
a(F0.10492777824401855
I349
tp1797
a(F0.13655495643615723
I350
tp1798
a(F0.17305207252502441
I351
tp1799
a(F0.17482805252075195
I351
tp1800
a(F0.20729398727416992
I351
tp1801
a(F0.17422294616699219
I351
tp1802
a(F0.17488789558410645
I351
tp1803
a(F0.23335981369018555
I351
tp1804
a(F0.2165529727935791
I351
tp1805
a(F0.24154305458068848
I351
tp1806
a(F0.22783303260803223
I351
tp1807
a(F0.18716692924499512
I351
tp1808
a(F0.21162509918212891
I352
tp1809
a(F0.17523503303527832
I352
tp1810
a(F0.20428705215454102
I352
tp1811
a(F0.19752311706542969
I352
tp1812
a(F0.26997900009155273
I354
tp1813
a(F0.24705886840820312
I354
tp1814
a(F0.2459869384765625
I354
tp1815
a(F0.28319215774536133
I354
tp1816
a(F0.2056272029876709
I354
tp1817
a(F0.1821749210357666
I354
tp1818
a(F0.21024394035339355
I355
tp1819
a(F0.21391987800598145
I355
tp1820
a(F0.17819404602050781
I355
tp1821
a(F0.2143709659576416
I356
tp1822
a(F0.17947506904602051
I356
tp1823
a(F0.17624616622924805
I356
tp1824
a(F0.18143391609191895
I356
tp1825
a(F0.22046399116516113
I357
tp1826
a(F0.21956205368041992
I357
tp1827
a(F0.18062782287597656
I357
tp1828
a(F0.20118403434753418
I357
tp1829
a(F0.2155759334564209
I358
tp1830
a(F0.21736693382263184
I358
tp1831
a(F0.18253922462463379
I358
tp1832
a(F0.15641307830810547
I358
tp1833
a(F0.1457819938659668
I358
tp1834
a(F0.1460258960723877
I358
tp1835
a(F0.21447992324829102
I360
tp1836
a(F0.23120999336242676
I360
tp1837
a(F0.18195796012878418
I360
tp1838
a(F0.19476604461669922
I360
tp1839
a(F0.18228387832641602
I360
tp1840
a(F0.18471598625183105
I360
tp1841
a(F0.25721192359924316
I362
tp1842
a(F0.24669718742370605
I362
tp1843
a(F0.22299385070800781
I362
tp1844
a(F0.22246408462524414
I362
tp1845
a(F0.2230830192565918
I362
tp1846
a(F0.15014314651489258
I362
tp1847
a(F0.14945292472839355
I362
tp1848
a(F0.1598970890045166
I362
tp1849
a(F0.22120904922485352
I364
tp1850
a(F0.22260093688964844
I364
tp1851
a(F0.25964999198913574
I365
tp1852
a(F0.29772686958312988
I366
tp1853
a(F0.2734978199005127
I366
tp1854
a(F0.24414896965026855
I366
tp1855
a(F0.32684206962585449
I366
tp1856
a(F0.26019406318664551
I366
tp1857
a(F0.24025201797485352
I366
tp1858
a(F0.23322391510009766
I366
tp1859
a(F0.2292330265045166
I366
tp1860
a(F0.20245099067687988
I366
tp1861
a(F0.1575009822845459
I366
tp1862
a(F0.21511697769165039
I367
tp1863
a(F0.23743486404418945
I368
tp1864
a(F0.25882101058959961
I368
tp1865
a(F0.26161098480224609
I368
tp1866
a(F0.2780909538269043
I370
tp1867
a(F0.24596714973449707
I370
tp1868
a(F0.20033001899719238
I370
tp1869
a(F0.23787593841552734
I370
tp1870
a(F0.20217299461364746
I370
tp1871
a(F0.17960691452026367
I370
tp1872
a(F0.17967605590820312
I370
tp1873
a(F0.19843697547912598
I371
tp1874
a(F0.20418691635131836
I371
tp1875
a(F0.25246000289916992
I372
tp1876
a(F0.20176506042480469
I372
tp1877
a(F0.24392104148864746
I372
tp1878
a(F0.27361512184143066
I373
tp1879
a(F0.36119294166564941
I375
tp1880
a(F0.34648013114929199
I375
tp1881
a(F0.27977395057678223
I375
tp1882
a(F0.367462158203125
I377
tp1883
a(F0.29277586936950684
I377
tp1884
a(F0.30400204658508301
I378
tp1885
a(F0.2391970157623291
I379
tp1886
a(F0.29477906227111816
I380
tp1887
a(F0.3703148365020752
I382
tp1888
a(F0.25544118881225586
I382
tp1889
a(F0.22099804878234863
I382
tp1890
a(F0.20946502685546875
I382
tp1891
a(F0.18283200263977051
I382
tp1892
a(F0.21876692771911621
I382
tp1893
a(F0.21921110153198242
I382
tp1894
a(F0.13255095481872559
I382
tp1895
a(F0.13588690757751465
I382
tp1896
a(F0.1336970329284668
I382
tp1897
a(F0.1008000373840332
I382
tp1898
a(F0.10875701904296875
I382
tp1899
a(F0.097817897796630859
I382
tp1900
a(F0.10375308990478516
I382
tp1901
a(F0.11306095123291016
I382
tp1902
a(F0.15144014358520508
I382
tp1903
a(F0.09232783317565918
I382
tp1904
a(F0.12526988983154297
I383
tp1905
a(F0.20914196968078613
I385
tp1906
a(F0.21026110649108887
I387
tp1907
a(F0.25428295135498047
I388
tp1908
a(F0.17165899276733398
I388
tp1909
a(F0.21731686592102051
I388
tp1910
a(F0.17162299156188965
I388
tp1911
a(F0.1731259822845459
I388
tp1912
a(F0.25602817535400391
I389
tp1913
a(F0.17057609558105469
I389
tp1914
a(F0.19649291038513184
I389
tp1915
a(F0.19431400299072266
I389
tp1916
a(F0.17511105537414551
I389
tp1917
a(F0.1940619945526123
I389
tp1918
a(F0.17194080352783203
I389
tp1919
a(F0.18420791625976562
I389
tp1920
a(F0.17428898811340332
I389
tp1921
a(F0.088896036148071289
I389
tp1922
a(F0.090404033660888672
I389
tp1923
a(F0.094990968704223633
I389
tp1924
a(F0.092798948287963867
I389
tp1925
a(F0.088757991790771484
I389
tp1926
a(F0.088455915451049805
I389
tp1927
a(F0.046260833740234375
I389
tp1928
a(F0.0041129589080810547
I389
tp1929
a(F0.0044310092926025391
I389
tp1930
a(F0.0045189857482910156
I389
tp1931
a(F0.0044901371002197266
I389
tp1932
a(F0.0037159919738769531
I389
tp1933
a(F0.0036559104919433594
I389
tp1934
a(F0.0039680004119873047
I389
tp1935
a(F0.0055930614471435547
I389
tp1936
a(F0.0054230690002441406
I389
tp1937
a(F0.064286947250366211
I389
tp1938
a(F0.13053798675537109
I389
tp1939
a(F0.12982296943664551
I389
tp1940
a(F0.13029909133911133
I389
tp1941
a(F0.13048720359802246
I389
tp1942
a(F0.18410897254943848
I389
tp1943
a(F0.17131781578063965
I389
tp1944
a(F0.12967491149902344
I389
tp1945
a(F0.17116904258728027
I389
tp1946
a(F0.17302298545837402
I389
tp1947
a(F0.2132720947265625
I389
tp1948
a(F0.25758004188537598
I389
tp1949
a(F0.17892289161682129
I389
tp1950
a(F0.22909092903137207
I389
tp1951
a(F0.20373892784118652
I389
tp1952
a(F0.13086509704589844
I389
tp1953
a(F0.1776578426361084
I389
tp1954
a(F0.15972495079040527
I389
tp1955
a(F0.17391395568847656
I389
tp1956
a(F0.15152215957641602
I389
tp1957
a(F0.18998217582702637
I389
tp1958
a(F0.18301892280578613
I389
tp1959
a(F0.13153195381164551
I389
tp1960
a(F0.17244100570678711
I389
tp1961
a(F0.17412900924682617
I389
tp1962
a(F0.17294907569885254
I389
tp1963
a(F0.27542400360107422
I389
tp1964
a(F0.21010398864746094
I389
tp1965
a(F0.17493414878845215
I389
tp1966
a(F0.19347596168518066
I389
tp1967
a(F0.13202595710754395
I389
tp1968
a(F0.087087869644165039
I389
tp1969
a(F0.092242002487182617
I389
tp1970
a(F0.13187384605407715
I389
tp1971
a(F0.17442107200622559
I389
tp1972
a(F0.13173317909240723
I389
tp1973
a(F0.13290905952453613
I389
tp1974
a(F0.17522001266479492
I389
tp1975
a(F0.22435402870178223
I389
tp1976
a(F0.18655204772949219
I389
tp1977
a(F0.17394900321960449
I389
tp1978
a(F0.21334695816040039
I389
tp1979
a(F0.13416099548339844
I389
tp1980
a(F0.16990113258361816
I390
tp1981
a(F0.31178593635559082
I391
tp1982
a(F0.30071091651916504
I391
tp1983
a(F0.26648497581481934
I391
tp1984
a(F0.31563901901245117
I392
tp1985
a(F0.27326202392578125
I392
tp1986
a(F0.37254714965820312
I393
tp1987
a(F0.35528397560119629
I394
tp1988
a(F0.44321918487548828
I395
tp1989
a(F0.35831117630004883
I395
tp1990
a(F0.3830568790435791
I395
tp1991
a(F0.34130597114562988
I396
tp1992
a(F0.23469114303588867
I396
tp1993
a(F0.31664705276489258
I398
tp1994
a(F0.32387495040893555
I400
tp1995
a(F0.2728571891784668
I401
tp1996
a(F0.19202899932861328
I401
tp1997
a(F0.19708085060119629
I401
tp1998
a(F0.14744305610656738
I401
tp1999
a(F0.1890261173248291
I401
tp2000
a(F0.15889692306518555
I401
tp2001
a(F0.17652487754821777
I401
tp2002
a(F0.13967514038085938
I401
tp2003
a(F0.16264605522155762
I401
tp2004
a(F0.12442302703857422
I401
tp2005
a(F0.049024105072021484
I401
tp2006
a(F0.05007481575012207
I401
tp2007
a(F0.1015021800994873
I402
tp2008
a(F0.095979928970336914
I402
tp2009
a(F0.10016393661499023
I402
tp2010
a(F0.074613094329833984
I402
tp2011
a(F0.064916849136352539
I402
tp2012
a(F0.056797027587890625
I402
tp2013
a(F0.0076470375061035156
I402
tp2014
a(F0.0074968338012695312
I402
tp2015
a(F0.0038418769836425781
I402
tp2016
a(F0.0039701461791992188
I402
tp2017
a(F0.0038228034973144531
I402
tp2018
a(F0.0041611194610595703
I402
tp2019
a(F0.0039429664611816406
I402
tp2020
a(F0.0058641433715820312
I402
tp2021
a(F0.0058882236480712891
I402
tp2022
a(F0.0057101249694824219
I402
tp2023
a(F0.080354928970336914
I402
tp2024
a(F0.14053893089294434
I402
tp2025
a(F0.13968896865844727
I402
tp2026
a(F0.14021778106689453
I402
tp2027
a(F0.18982195854187012
I403
tp2028
a(F0.2327580451965332
I403
tp2029
a(F0.23267602920532227
I403
tp2030
a(F0.23213696479797363
I403
tp2031
a(F0.18642401695251465
I403
tp2032
a(F0.23245787620544434
I403
tp2033
a(F0.3229827880859375
I405
tp2034
a(F0.33798909187316895
I405
tp2035
a(F0.24089908599853516
I405
tp2036
a(F0.37094807624816895
I406
tp2037
a(F0.32746005058288574
I406
tp2038
a(F0.28431200981140137
I406
tp2039
a(F0.33157896995544434
I407
tp2040
a(F0.28630781173706055
I407
tp2041
a(F0.29060101509094238
I407
tp2042
a(F0.2508540153503418
I408
tp2043
a(F0.24983620643615723
I408
tp2044
a(F0.25264596939086914
I408
tp2045
a(F0.23727178573608398
I408
tp2046
a(F0.33631396293640137
I408
tp2047
a(F0.35485005378723145
I408
tp2048
a(F0.37097716331481934
I409
tp2049
a(F0.41329097747802734
I409
tp2050
a(F0.3901820182800293
I411
tp2051
a(F0.3884129524230957
I411
tp2052
a(F0.33996701240539551
I411
tp2053
a(F0.29006099700927734
I411
tp2054
a(F0.29046201705932617
I413
tp2055
a(F0.33127188682556152
I413
tp2056
a(F0.29181814193725586
I413
tp2057
a(F0.24255514144897461
I413
tp2058
a(F0.30562996864318848
I413
tp2059
a(F0.25113415718078613
I413
tp2060
a(F0.24430298805236816
I413
tp2061
a(F0.2563471794128418
I413
tp2062
a(F0.20805001258850098
I413
tp2063
a(F0.2029569149017334
I413
tp2064
a(F0.19427490234375
I413
tp2065
a(F0.20409202575683594
I413
tp2066
a(F0.17825698852539062
I413
tp2067
a(F0.12947201728820801
I413
tp2068
a(F0.11099004745483398
I413
tp2069
a(F0.12703108787536621
I413
tp2070
a(F0.10109901428222656
I413
tp2071
a(F0.059824943542480469
I413
tp2072
a(F0.0057880878448486328
I413
tp2073
a(F0.0058798789978027344
I413
tp2074
a(F0.0040721893310546875
I413
tp2075
a(F0.0041120052337646484
I413
tp2076
a(F0.00415802001953125
I413
tp2077
a(F0.0046031475067138672
I413
tp2078
a(F0.0062000751495361328
I413
tp2079
a(F0.071573019027709961
I413
tp2080
a(F0.14844393730163574
I413
tp2081
a(F0.14633488655090332
I413
tp2082
a(F0.21121692657470703
I413
tp2083
a(F0.16448092460632324
I413
tp2084
a(F0.19290399551391602
I413
tp2085
a(F0.14767003059387207
I413
tp2086
a(F0.19523286819458008
I413
tp2087
a(F0.2461540699005127
I414
tp2088
a(F0.20203089714050293
I414
tp2089
a(F0.24685502052307129
I414
tp2090
a(F0.10126399993896484
I414
tp2091
a(F0.14982199668884277
I414
tp2092
a(F0.29368710517883301
I414
tp2093
a(F0.39550590515136719
I414
tp2094
a(F0.30782699584960938
I414
tp2095
a(F0.35946798324584961
I414
tp2096
a(F0.35300922393798828
I414
tp2097
a(F0.40024209022521973
I415
tp2098
a(F0.37581586837768555
I415
tp2099
a(F0.2959139347076416
I416
tp2100
a(F0.25239109992980957
I416
tp2101
a(F0.27018213272094727
I416
tp2102
a(F0.30207681655883789
I417
tp2103
a(F0.25665283203125
I417
tp2104
a(F0.2528378963470459
I417
tp2105
a(F0.27482390403747559
I417
tp2106
a(F0.21205997467041016
I417
tp2107
a(F0.15378403663635254
I417
tp2108
a(F0.19872617721557617
I418
tp2109
a(F0.2177579402923584
I418
tp2110
a(F0.18805694580078125
I418
tp2111
a(F0.15827393531799316
I418
tp2112
a(F0.2125859260559082
I419
tp2113
a(F0.27919602394104004
I420
tp2114
a(F0.26449298858642578
I420
tp2115
a(F0.11540389060974121
I420
tp2116
a(F0.15373086929321289
I420
tp2117
a(F0.25239706039428711
I422
tp2118
a(F0.20609498023986816
I422
tp2119
a(F0.21181011199951172
I422
tp2120
a(F0.20638704299926758
I422
tp2121
a(F0.15888500213623047
I422
tp2122
a(F0.15522289276123047
I422
tp2123
a(F0.15459609031677246
I422
tp2124
a(F0.1584630012512207
I422
tp2125
a(F0.15630102157592773
I422
tp2126
a(F0.10548996925354004
I422
tp2127
a(F0.10525107383728027
I422
tp2128
a(F0.10690903663635254
I422
tp2129
a(F0.10711812973022461
I422
tp2130
a(F0.055311918258666992
I422
tp2131
a(F0.05534815788269043
I422
tp2132
a(F0.10274600982666016
I423
tp2133
a(F0.10728096961975098
I424
tp2134
a(F0.26940393447875977
I424
tp2135
a(F0.20815110206604004
I424
tp2136
a(F0.31070399284362793
I424
tp2137
a(F0.370452880859375
I424
tp2138
a(F0.45922398567199707
I424
tp2139
a(F0.43345499038696289
I424
tp2140
a(F0.36024713516235352
I424
tp2141
a(F0.24489593505859375
I424
tp2142
a(F0.22189807891845703
I424
tp2143
a(F0.29520416259765625
I425
tp2144
a(F0.2693181037902832
I425
tp2145
a(F0.26410508155822754
I425
tp2146
a(F0.25922894477844238
I425
tp2147
a(F0.27318310737609863
I426
tp2148
a(F0.26447701454162598
I427
tp2149
a(F0.27959799766540527
I427
tp2150
a(F0.26988911628723145
I427
tp2151
a(F0.27265095710754395
I427
tp2152
a(F0.2905430793762207
I427
tp2153
a(F0.27792716026306152
I427
tp2154
a(F0.28147387504577637
I427
tp2155
a(F0.31995606422424316
I428
tp2156
a(F0.20874595642089844
I429
tp2157
a(F0.21628117561340332
I429
tp2158
a(F0.18680310249328613
I429
tp2159
a(F0.2403109073638916
I429
tp2160
a(F0.16942691802978516
I430
tp2161
a(F0.21712303161621094
I431
tp2162
a(F0.26681399345397949
I432
tp2163
a(F0.28010296821594238
I432
tp2164
a(F0.27177906036376953
I432
tp2165
a(F0.22612309455871582
I432
tp2166
a(F0.2261040210723877
I432
tp2167
a(F0.27829313278198242
I433
tp2168
a(F0.27489805221557617
I433
tp2169
a(F0.24589085578918457
I433
tp2170
a(F0.23816204071044922
I433
tp2171
a(F0.16285896301269531
I433
tp2172
a(F0.16215085983276367
I433
tp2173
a(F0.17583489418029785
I433
tp2174
a(F0.11116504669189453
I433
tp2175
a(F0.11164402961730957
I433
tp2176
a(F0.11195707321166992
I433
tp2177
a(F0.10954904556274414
I433
tp2178
a(F0.10963606834411621
I433
tp2179
a(F0.06370091438293457
I433
tp2180
a(F0.065144062042236328
I433
tp2181
a(F0.059923171997070312
I433
tp2182
a(F0.058948993682861328
I433
tp2183
a(F0.12406301498413086
I433
tp2184
a(F0.056467056274414062
I433
tp2185
a(F0.067487955093383789
I433
tp2186
a(F0.0042018890380859375
I433
tp2187
a(F0.059103965759277344
I433
tp2188
a(F0.1099400520324707
I433
tp2189
a(F0.21864795684814453
I433
tp2190
a(F0.17953991889953613
I433
tp2191
a(F0.18779516220092773
I433
tp2192
a(F0.18352603912353516
I433
tp2193
a(F0.12157511711120605
I433
tp2194
a(F0.11143302917480469
I433
tp2195
a(F0.11013698577880859
I433
tp2196
a(F0.22781205177307129
I433
tp2197
a(F0.18901300430297852
I433
tp2198
a(F0.16341900825500488
I433
tp2199
a(F0.2364809513092041
I433
tp2200
a(F0.16386103630065918
I433
tp2201
a(F0.21467900276184082
I433
tp2202
a(F0.26817917823791504
I433
tp2203
a(F0.1730959415435791
I433
tp2204
a(F0.21921491622924805
I433
tp2205
a(F0.21511483192443848
I433
tp2206
a(F0.18598103523254395
I433
tp2207
a(F0.13797593116760254
I433
tp2208
a(F0.21645307540893555
I434
tp2209
a(F0.2182161808013916
I434
tp2210
a(F0.21805500984191895
I434
tp2211
a(F0.16438198089599609
I434
tp2212
a(F0.21809697151184082
I434
tp2213
a(F0.27966094017028809
I435
tp2214
a(F0.34556007385253906
I436
tp2215
a(F0.23325800895690918
I436
tp2216
a(F0.16718316078186035
I436
tp2217
a(F0.17671084403991699
I436
tp2218
a(F0.16718792915344238
I436
tp2219
a(F0.16706204414367676
I436
tp2220
a(F0.16587591171264648
I436
tp2221
a(F0.16568183898925781
I436
tp2222
a(F0.27504587173461914
I436
tp2223
a(F0.33301091194152832
I436
tp2224
a(F0.29372286796569824
I436
tp2225
a(F0.11285805702209473
I436
tp2226
a(F0.12761688232421875
I436
tp2227
a(F0.17815613746643066
I436
tp2228
a(F0.2017970085144043
I436
tp2229
a(F0.17034912109375
I436
tp2230
a(F0.36261606216430664
I436
tp2231
a(F0.35235905647277832
I436
tp2232
a(F0.33940601348876953
I436
tp2233
a(F0.34232997894287109
I436
tp2234
a(F0.28722000122070312
I436
tp2235
a(F0.3281550407409668
I436
tp2236
a(F0.23652982711791992
I436
tp2237
a(F0.2789459228515625
I436
tp2238
a(F0.34241008758544922
I436
tp2239
a(F0.33023905754089355
I436
tp2240
a(F0.33980393409729004
I436
tp2241
a(F0.3881218433380127
I436
tp2242
a(F0.39253997802734375
I436
tp2243
a(F0.46920204162597656
I436
tp2244
a(F0.45145392417907715
I436
tp2245
a(F0.39378118515014648
I436
tp2246
a(F0.38464593887329102
I436
tp2247
a(F0.42760896682739258
I436
tp2248
a(F0.3809819221496582
I436
tp2249
a(F0.27167391777038574
I436
tp2250
a(F0.33495497703552246
I436
tp2251
a(F0.27502894401550293
I436
tp2252
a(F0.33428597450256348
I436
tp2253
a(F0.33175802230834961
I436
tp2254
a(F0.27320003509521484
I436
tp2255
a(F0.22347688674926758
I436
tp2256
a(F0.22947406768798828
I436
tp2257
a(F0.22463393211364746
I436
tp2258
a(F0.2260441780090332
I436
tp2259
a(F0.29603004455566406
I436
tp2260
a(F0.27529406547546387
I436
tp2261
a(F0.30107593536376953
I436
tp2262
a(F0.29314398765563965
I436
tp2263
a(F0.31042098999023438
I436
tp2264
a(F0.32396888732910156
I436
tp2265
a(F0.27449202537536621
I436
tp2266
a(F0.33644890785217285
I436
tp2267
a(F0.25049185752868652
I436
tp2268
a(F0.22371697425842285
I436
tp2269
a(F0.27307605743408203
I436
tp2270
a(F0.27863287925720215
I436
tp2271
a(F0.33703017234802246
I436
tp2272
a(F0.3313450813293457
I436
tp2273
a(F0.33548283576965332
I436
tp2274
a(F0.37417292594909668
I436
tp2275
a(F0.33492898941040039
I436
tp2276
a(F0.39579510688781738
I436
tp2277
a(F0.35425782203674316
I436
tp2278
a(F0.32959294319152832
I436
tp2279
a(F0.33803606033325195
I436
tp2280
a(F0.34697914123535156
I436
tp2281
a(F0.31700801849365234
I436
tp2282
a(F0.23639798164367676
I436
tp2283
a(F0.26193618774414062
I436
tp2284
a(F0.32487797737121582
I436
tp2285
a(F0.34408998489379883
I436
tp2286
a(F0.33887004852294922
I436
tp2287
a(F0.33488702774047852
I436
tp2288
a(F0.2757871150970459
I436
tp2289
a(F0.28037309646606445
I436
tp2290
a(F0.2942500114440918
I436
tp2291
a(F0.32879400253295898
I436
tp2292
a(F0.34622597694396973
I436
tp2293
a(F0.33355712890625
I436
tp2294
a(F0.35918903350830078
I436
tp2295
a(F0.22968912124633789
I436
tp2296
a(F0.2347409725189209
I436
tp2297
a(F0.27294206619262695
I436
tp2298
a(F0.23929095268249512
I436
tp2299
a(F0.32394218444824219
I436
tp2300
a(F0.34011220932006836
I436
tp2301
a(F0.33746600151062012
I436
tp2302
a(F0.34145593643188477
I436
tp2303
a(F0.22034001350402832
I436
tp2304
a(F0.28137803077697754
I436
tp2305
a(F0.29117798805236816
I436
tp2306
a(F0.28951311111450195
I436
tp2307
a(F0.28203582763671875
I436
tp2308
a(F0.23218703269958496
I436
tp2309
a(F0.28080987930297852
I436
tp2310
a(F0.33559179306030273
I436
tp2311
a(F0.27466893196105957
I436
tp2312
a(F0.27366304397583008
I436
tp2313
a(F0.28026103973388672
I436
tp2314
a(F0.29144406318664551
I436
tp2315
a(F0.37447500228881836
I436
tp2316
a(F0.36222386360168457
I436
tp2317
a(F0.32812786102294922
I436
tp2318
a(F0.24700593948364258
I436
tp2319
a(F0.23373293876647949
I436
tp2320
a(F0.23270988464355469
I436
tp2321
a(F0.29876399040222168
I436
tp2322
a(F0.32641696929931641
I436
tp2323
a(F0.30870199203491211
I436
tp2324
a(F0.3438878059387207
I436
tp2325
a(F0.36452078819274902
I436
tp2326
a(F0.29929494857788086
I436
tp2327
a(F0.34917807579040527
I436
tp2328
a(F0.35109901428222656
I436
tp2329
a(F0.29708290100097656
I436
tp2330
a(F0.24933481216430664
I436
tp2331
a(F0.33435297012329102
I436
tp2332
a(F0.33090400695800781
I436
tp2333
a(F0.21848082542419434
I436
tp2334
a(F0.22309279441833496
I436
tp2335
a(F0.22586607933044434
I436
tp2336
a(F0.22522902488708496
I436
tp2337
a(F0.24637484550476074
I436
tp2338
a(F0.32555389404296875
I436
tp2339
a(F0.33977699279785156
I436
tp2340
a(F0.42455506324768066
I436
tp2341
a(F0.33150196075439453
I436
tp2342
a(F0.3657529354095459
I436
tp2343
a(F0.28269720077514648
I436
tp2344
a(F0.2911679744720459
I436
tp2345
a(F0.30837392807006836
I436
tp2346
a(F0.28497815132141113
I436
tp2347
a(F0.27707195281982422
I436
tp2348
a(F0.32834982872009277
I436
tp2349
a(F0.29255199432373047
I436
tp2350
a(F0.27504611015319824
I436
tp2351
a(F0.30050206184387207
I436
tp2352
a(F0.34557604789733887
I436
tp2353
a(F0.35085511207580566
I436
tp2354
a(F0.3941490650177002
I436
tp2355
a(F0.44149088859558105
I436
tp2356
a(F0.44041109085083008
I436
tp2357
a(F0.41733002662658691
I436
tp2358
a(F0.42430591583251953
I436
tp2359
a(F0.40864896774291992
I436
tp2360
a(F0.28695297241210938
I436
tp2361
a(F0.28801083564758301
I436
tp2362
a(F0.22242498397827148
I436
tp2363
a(F0.17375612258911133
I436
tp2364
a(F0.19105386734008789
I436
tp2365
a(F0.12816214561462402
I436
tp2366
a(F0.21912312507629395
I436
tp2367
a(F0.17720413208007812
I436
tp2368
a(F0.23400783538818359
I436
tp2369
a(F0.1270599365234375
I436
tp2370
a(F0.12077593803405762
I436
tp2371
a(F0.14849400520324707
I436
tp2372
a(F0.11961817741394043
I436
tp2373
a(F0.16532707214355469
I436
tp2374
a(F0.21915006637573242
I436
tp2375
a(F0.16512084007263184
I436
tp2376
a(F0.2176508903503418
I436
tp2377
a(F0.1666719913482666
I436
tp2378
a(F0.22235989570617676
I436
tp2379
a(F0.22042107582092285
I436
tp2380
a(F0.16500210762023926
I436
tp2381
a(F0.16636300086975098
I436
tp2382
a(F0.21848416328430176
I436
tp2383
a(F0.21963191032409668
I436
tp2384
a(F0.27224206924438477
I436
tp2385
a(F0.41312003135681152
I436
tp2386
a(F0.4961240291595459
I436
tp2387
a(F0.37923908233642578
I436
tp2388
a(F0.37985587120056152
I436
tp2389
a(F0.41256213188171387
I436
tp2390
a(F0.39249801635742188
I436
tp2391
a(F0.22079110145568848
I436
tp2392
a(F0.18221116065979004
I436
tp2393
a(F0.17065691947937012
I436
tp2394
a(F0.16532301902770996
I436
tp2395
a(F0.22089600563049316
I436
tp2396
a(F0.22236800193786621
I436
tp2397
a(F0.22185897827148438
I436
tp2398
a(F0.22092008590698242
I436
tp2399
a(F0.17624783515930176
I436
tp2400
a(F0.11186909675598145
I436
tp2401
a(F0.16652512550354004
I436
tp2402
a(F0.11422204971313477
I436
tp2403
a(F0.21765494346618652
I436
tp2404
a(F0.21711897850036621
I436
tp2405
a(F0.3274390697479248
I436
tp2406
a(F0.27262210845947266
I436
tp2407
a(F0.27390789985656738
I436
tp2408
a(F0.2234489917755127
I436
tp2409
a(F0.2748110294342041
I436
tp2410
a(F0.24036598205566406
I436
tp2411
a(F0.33027887344360352
I436
tp2412
a(F0.32775783538818359
I436
tp2413
a(F0.33968806266784668
I436
tp2414
a(F0.28985500335693359
I436
tp2415
a(F0.24027299880981445
I436
tp2416
a(F0.23030495643615723
I436
tp2417
a(F0.28423881530761719
I436
tp2418
a(F0.32945799827575684
I436
tp2419
a(F0.38635587692260742
I436
tp2420
a(F0.35875105857849121
I436
tp2421
a(F0.42233991622924805
I436
tp2422
a(F0.33610916137695312
I436
tp2423
a(F0.27078986167907715
I436
tp2424
a(F0.32756900787353516
I436
tp2425
a(F0.32455611228942871
I436
tp2426
a(F0.34385013580322266
I436
tp2427
a(F0.29402709007263184
I436
tp2428
a(F0.2698819637298584
I436
tp2429
a(F0.29217314720153809
I436
tp2430
a(F0.29868912696838379
I436
tp2431
a(F0.29705810546875
I436
tp2432
a(F0.34157681465148926
I436
tp2433
a(F0.28659605979919434
I436
tp2434
a(F0.36173009872436523
I436
tp2435
a(F0.27604818344116211
I436
tp2436
a(F0.33138418197631836
I436
tp2437
a(F0.28139901161193848
I436
tp2438
a(F0.22213006019592285
I436
tp2439
a(F0.2192840576171875
I436
tp2440
a(F0.22743105888366699
I436
tp2441
a(F0.27251791954040527
I436
tp2442
a(F0.28683686256408691
I436
tp2443
a(F0.33806705474853516
I436
tp2444
a(F0.28730487823486328
I436
tp2445
a(F0.24172306060791016
I436
tp2446
a(F0.27162313461303711
I436
tp2447
a(F0.34445095062255859
I436
tp2448
a(F0.27906608581542969
I436
tp2449
a(F0.34381008148193359
I436
tp2450
a(F0.2798459529876709
I436
tp2451
a(F0.30326414108276367
I436
tp2452
a(F0.28319311141967773
I436
tp2453
a(F0.24379801750183105
I436
tp2454
a(F0.33673906326293945
I436
tp2455
a(F0.34345602989196777
I436
tp2456
a(F0.33915495872497559
I436
tp2457
a(F0.36990690231323242
I436
tp2458
a(F0.39345288276672363
I436
tp2459
a(F0.43367910385131836
I436
tp2460
a(F0.29371094703674316
I436
tp2461
a(F0.33127713203430176
I436
tp2462
a(F0.33647394180297852
I436
tp2463
a(F0.33639812469482422
I436
tp2464
a(F0.35607409477233887
I436
tp2465
a(F0.32823586463928223
I436
tp2466
a(F0.30847311019897461
I436
tp2467
a(F0.22903895378112793
I436
tp2468
a(F0.21887707710266113
I436
tp2469
a(F0.2760460376739502
I436
tp2470
a(F0.23665499687194824
I436
tp2471
a(F0.33594703674316406
I436
tp2472
a(F0.3949429988861084
I436
tp2473
a(F0.27436494827270508
I436
tp2474
a(F0.28122997283935547
I436
tp2475
a(F0.33060908317565918
I436
tp2476
a(F0.34473681449890137
I436
tp2477
a(F0.2792201042175293
I436
tp2478
a(F0.21725106239318848
I436
tp2479
a(F0.23137092590332031
I436
tp2480
a(F0.28311705589294434
I436
tp2481
a(F0.22740793228149414
I436
tp2482
a(F0.33444619178771973
I436
tp2483
a(F0.32906794548034668
I436
tp2484
a(F0.3256680965423584
I436
tp2485
a(F0.32334589958190918
I436
tp2486
a(F0.37538003921508789
I436
tp2487
a(F0.49053311347961426
I436
tp2488
a(F0.37166810035705566
I436
tp2489
a(F0.43278598785400391
I436
tp2490
a(F0.44609379768371582
I436
tp2491
a(F0.33868789672851562
I436
tp2492
a(F0.34200000762939453
I436
tp2493
a(F0.33631396293640137
I436
tp2494
a(F0.36229896545410156
I436
tp2495
a(F0.33148908615112305
I436
tp2496
a(F0.31784296035766602
I436
tp2497
a(F0.31619000434875488
I436
tp2498
a(F0.32457113265991211
I436
tp2499
a(F0.32592201232910156
I436
tp2500
a(F0.34232091903686523
I436
tp2501
a(F0.27835988998413086
I436
tp2502
a(F0.32879400253295898
I436
tp2503
a(F0.27488088607788086
I436
tp2504
a(F0.46671414375305176
I436
tp2505
a(F0.43191909790039062
I436
tp2506
a(F0.49249005317687988
I436
tp2507
a(F0.48817896842956543
I436
tp2508
a(F0.43615603446960449
I436
tp2509
a(F0.43138694763183594
I436
tp2510
a(F0.44609403610229492
I436
tp2511
a(F0.32385993003845215
I436
tp2512
a(F0.26699614524841309
I436
tp2513
a(F0.16827702522277832
I436
tp2514
a(F0.22385501861572266
I436
tp2515
a(F0.16952991485595703
I436
tp2516
a(F0.17695093154907227
I436
tp2517
a(F0.25004982948303223
I436
tp2518
a(F0.29396891593933105
I436
tp2519
a(F0.33774805068969727
I436
tp2520
a(F0.33458709716796875
I436
tp2521
a(F0.27611899375915527
I436
tp2522
a(F0.33885884284973145
I436
tp2523
a(F0.22920799255371094
I436
tp2524
a(F0.21721601486206055
I436
tp2525
a(F0.28728890419006348
I436
tp2526
a(F0.28005099296569824
I436
tp2527
a(F0.34178304672241211
I436
tp2528
a(F0.34257006645202637
I436
tp2529
a(F0.38412189483642578
I436
tp2530
a(F0.45526504516601562
I436
tp2531
a(F0.43863296508789062
I436
tp2532
a(F0.29655694961547852
I436
tp2533
a(F0.3278958797454834
I436
tp2534
a(F0.43047404289245605
I436
tp2535
a(F0.39344596862792969
I436
tp2536
a(F0.40481996536254883
I436
tp2537
a(F0.27317595481872559
I436
tp2538
a(F0.26281309127807617
I436
tp2539
a(F0.24944400787353516
I436
tp2540
a(F0.23370480537414551
I436
tp2541
a(F0.22747111320495605
I436
tp2542
a(F0.25586891174316406
I436
tp2543
a(F0.22126388549804688
I436
tp2544
a(F0.22241997718811035
I436
tp2545
a(F0.12638497352600098
I436
tp2546
a(F0.13117384910583496
I436
tp2547
a(F0.1216590404510498
I436
tp2548
a(F0.063949108123779297
I436
tp2549
a(F0.058852195739746094
I436
tp2550
a(F0.10817480087280273
I437
tp2551
a(F0.1118309497833252
I437
tp2552
a(F0.11182498931884766
I438
tp2553
a(F0.11078000068664551
I438
tp2554
a(F0.16361021995544434
I439
tp2555
a(F0.058171987533569336
I439
tp2556
a(F0.11079788208007812
I440
tp2557
a(F0.16605496406555176
I440
tp2558
a(F0.17574405670166016
I441
tp2559
a(F0.11309099197387695
I441
tp2560
a(F0.22669315338134766
I441
tp2561
a(F0.22562909126281738
I441
tp2562
a(F0.17154908180236816
I441
tp2563
a(F0.2231450080871582
I442
tp2564
a(F0.29416990280151367
I442
tp2565
a(F0.2843019962310791
I442
tp2566
a(F0.22495794296264648
I442
tp2567
a(F0.24621891975402832
I442
tp2568
a(F0.19020795822143555
I442
tp2569
a(F0.1683800220489502
I442
tp2570
a(F0.16984701156616211
I442
tp2571
a(F0.16864395141601562
I442
tp2572
a(F0.11531400680541992
I442
tp2573
a(F0.16857409477233887
I443
tp2574
a(F0.17056584358215332
I443
tp2575
a(F0.16807103157043457
I443
tp2576
a(F0.16732406616210938
I443
tp2577
a(F0.16846394538879395
I444
tp2578
a(F0.11620903015136719
I444
tp2579
a(F0.11709713935852051
I444
tp2580
a(F0.11573314666748047
I444
tp2581
a(F0.13455009460449219
I444
tp2582
a(F0.11513400077819824
I444
tp2583
a(F0.061780929565429688
I444
tp2584
a(F0.16664981842041016
I446
tp2585
a(F0.059416055679321289
I446
tp2586
a(F0.17083096504211426
I447
tp2587
a(F0.11745810508728027
I447
tp2588
a(F0.12522196769714355
I447
tp2589
a(F0.12801194190979004
I447
tp2590
a(F0.17470502853393555
I447
tp2591
a(F0.17553496360778809
I447
tp2592
a(F0.11790990829467773
I447
tp2593
a(F0.12552690505981445
I447
tp2594
a(F0.1786348819732666
I448
tp2595
a(F0.19438385963439941
I448
tp2596
a(F0.12063002586364746
I448
tp2597
a(F0.22899198532104492
I449
tp2598
a(F0.19422817230224609
I449
tp2599
a(F0.23420000076293945
I449
tp2600
a(F0.24866604804992676
I449
tp2601
a(F0.14679694175720215
I449
tp2602
a(F0.1717689037322998
I449
tp2603
a(F0.17252492904663086
I449
tp2604
a(F0.17447781562805176
I449
tp2605
a(F0.12893295288085938
I449
tp2606
a(F0.11923789978027344
I449
tp2607
a(F0.11734104156494141
I449
tp2608
a(F0.16790890693664551
I451
tp2609
a(F0.1304171085357666
I451
tp2610
a(F0.2292330265045166
I452
tp2611
a(F0.17942595481872559
I452
tp2612
a(F0.26566910743713379
I452
tp2613
a(F0.23658204078674316
I452
tp2614
a(F0.29106402397155762
I453
tp2615
a(F0.23371410369873047
I453
tp2616
a(F0.24667787551879883
I453
tp2617
a(F0.11840081214904785
I453
tp2618
a(F0.17535400390625
I453
tp2619
a(F0.11754393577575684
I453
tp2620
a(F0.17490601539611816
I453
tp2621
a(F0.17522692680358887
I453
tp2622
a(F0.17541694641113281
I453
tp2623
a(F0.18598294258117676
I453
tp2624
a(F0.17724204063415527
I453
tp2625
a(F0.17388796806335449
I454
tp2626
a(F0.17581915855407715
I454
tp2627
a(F0.13058209419250488
I454
tp2628
a(F0.18543100357055664
I454
tp2629
a(F0.11948704719543457
I454
tp2630
a(F0.062255859375
I454
tp2631
a(F0.1219019889831543
I454
tp2632
a(F0.12287998199462891
I454
tp2633
a(F0.12026000022888184
I454
tp2634
a(F0.062101125717163086
I454
tp2635
a(F0.11761689186096191
I455
tp2636
a(F0.12136101722717285
I455
tp2637
a(F0.11980819702148438
I455
tp2638
a(F0.17791199684143066
I456
tp2639
a(F0.17670106887817383
I456
tp2640
a(F0.18085598945617676
I456
tp2641
a(F0.18843483924865723
I456
tp2642
a(F0.23840618133544922
I457
tp2643
a(F0.18256402015686035
I457
tp2644
a(F0.12023091316223145
I457
tp2645
a(F0.062247991561889648
I457
tp2646
a(F0.12067508697509766
I457
tp2647
a(F0.11970114707946777
I457
tp2648
a(F0.12175583839416504
I457
tp2649
a(F0.11899805068969727
I457
tp2650
a(F0.17360401153564453
I458
tp2651
a(F0.11982107162475586
I458
tp2652
a(F0.1191248893737793
I458
tp2653
a(F0.12018418312072754
I458
tp2654
a(F0.12037491798400879
I458
tp2655
a(F0.23306918144226074
I459
tp2656
a(F0.1207430362701416
I459
tp2657
a(F0.065279960632324219
I459
tp2658
a(F0.063512086868286133
I459
tp2659
a(F0.18729186058044434
I460
tp2660
a(F0.23549914360046387
I461
tp2661
a(F0.27679204940795898
I461
tp2662
a(F0.26088690757751465
I461
tp2663
a(F0.20738792419433594
I461
tp2664
a(F0.18823814392089844
I461
tp2665
a(F0.18332505226135254
I461
tp2666
a(F0.13027000427246094
I461
tp2667
a(F0.12188100814819336
I461
tp2668
a(F0.14537501335144043
I461
tp2669
a(F0.12273287773132324
I461
tp2670
a(F0.12224102020263672
I461
tp2671
a(F0.2374260425567627
I463
tp2672
a(F0.067115068435668945
I463
tp2673
a(F0.18097901344299316
I464
tp2674
a(F0.18415498733520508
I464
tp2675
a(F0.24439001083374023
I464
tp2676
a(F0.19317102432250977
I464
tp2677
a(F0.18338894844055176
I465
tp2678
a(F0.24228596687316895
I466
tp2679
a(F0.064800024032592773
I466
tp2680
a(F0.1254279613494873
I466
tp2681
a(F0.18918609619140625
I466
tp2682
a(F0.25975394248962402
I467
tp2683
a(F0.2453010082244873
I467
tp2684
a(F0.28573513031005859
I467
tp2685
a(F0.30956387519836426
I467
tp2686
a(F0.20673584938049316
I467
tp2687
a(F0.25008583068847656
I467
tp2688
a(F0.18817996978759766
I467
tp2689
a(F0.24332809448242188
I468
tp2690
a(F0.12752413749694824
I468
tp2691
a(F0.18709397315979004
I469
tp2692
a(F0.18940281867980957
I469
tp2693
a(F0.25147008895874023
I469
tp2694
a(F0.3090050220489502
I470
tp2695
a(F0.32011508941650391
I470
tp2696
a(F0.25855708122253418
I471
tp2697
a(F0.20110201835632324
I471
tp2698
a(F0.26877713203430176
I471
tp2699
a(F0.19113302230834961
I471
tp2700
a(F0.22965097427368164
I471
tp2701
a(F0.2088778018951416
I471
tp2702
a(F0.19139003753662109
I471
tp2703
a(F0.25084590911865234
I471
tp2704
a(F0.26030492782592773
I472
tp2705
a(F0.32517004013061523
I473
tp2706
a(F0.26746702194213867
I473
tp2707
a(F0.20593714714050293
I473
tp2708
a(F0.27925491333007812
I474
tp2709
a(F0.31411480903625488
I474
tp2710
a(F0.25557112693786621
I474
tp2711
a(F0.19203710556030273
I474
tp2712
a(F0.32032608985900879
I475
tp2713
a(F0.23710489273071289
I475
tp2714
a(F0.26407623291015625
I475
tp2715
a(F0.20498013496398926
I475
tp2716
a(F0.21042108535766602
I475
tp2717
a(F0.13393306732177734
I475
tp2718
a(F0.25419402122497559
I476
tp2719
a(F0.26346516609191895
I476
tp2720
a(F0.26466488838195801
I476
tp2721
a(F0.2760930061340332
I476
tp2722
a(F0.31853389739990234
I478
tp2723
a(F0.27787184715270996
I478
tp2724
a(F0.2918858528137207
I478
tp2725
a(F0.21271419525146484
I478
tp2726
a(F0.21095609664916992
I478
tp2727
a(F0.19497013092041016
I478
tp2728
a(F0.22468900680541992
I478
tp2729
a(F0.13601422309875488
I478
tp2730
a(F0.19955801963806152
I478
tp2731
a(F0.25616908073425293
I480
tp2732
a(F0.197235107421875
I480
tp2733
a(F0.26242184638977051
I480
tp2734
a(F0.31507301330566406
I480
tp2735
a(F0.2104339599609375
I480
tp2736
a(F0.26165199279785156
I481
tp2737
a(F0.38679194450378418
I482
tp2738
a(F0.33694911003112793
I482
tp2739
a(F0.27658390998840332
I482
tp2740
a(F0.20932102203369141
I482
tp2741
a(F0.21821403503417969
I482
tp2742
a(F0.21648192405700684
I482
tp2743
a(F0.22060203552246094
I482
tp2744
a(F0.20267510414123535
I482
tp2745
a(F0.25954604148864746
I483
tp2746
a(F0.15100908279418945
I483
tp2747
a(F0.207427978515625
I483
tp2748
a(F0.21448993682861328
I483
tp2749
a(F0.20378589630126953
I484
tp2750
a(F0.23316621780395508
I484
tp2751
a(F0.21822690963745117
I484
tp2752
a(F0.20473098754882812
I484
tp2753
a(F0.35832095146179199
I485
tp2754
a(F0.30415511131286621
I485
tp2755
a(F0.22041487693786621
I486
tp2756
a(F0.16244101524353027
I486
tp2757
a(F0.27343106269836426
I487
tp2758
a(F0.23336982727050781
I487
tp2759
a(F0.29602193832397461
I487
tp2760
a(F0.2843329906463623
I487
tp2761
a(F0.21127009391784668
I487
tp2762
a(F0.21225309371948242
I487
tp2763
a(F0.34302282333374023
I489
tp2764
a(F0.34561586380004883
I489
tp2765
a(F0.35537910461425781
I489
tp2766
a(F0.34133791923522949
I490
tp2767
a(F0.2008049488067627
I490
tp2768
a(F0.16426491737365723
I490
tp2769
a(F0.24191188812255859
I490
tp2770
a(F0.30032205581665039
I491
tp2771
a(F0.21250295639038086
I491
tp2772
a(F0.25137591361999512
I491
tp2773
a(F0.21665406227111816
I491
tp2774
a(F0.311920166015625
I491
tp2775
a(F0.28156805038452148
I491
tp2776
a(F0.27703285217285156
I492
tp2777
a(F0.35274195671081543
I492
tp2778
a(F0.3614351749420166
I492
tp2779
a(F0.27822399139404297
I492
tp2780
a(F0.20779895782470703
I492
tp2781
a(F0.21029400825500488
I492
tp2782
a(F0.14336109161376953
I492
tp2783
a(F0.14238905906677246
I492
tp2784
a(F0.14539599418640137
I492
tp2785
a(F0.14641809463500977
I492
tp2786
a(F0.14665889739990234
I492
tp2787
a(F0.1687159538269043
I492
tp2788
a(F0.2743678092956543
I494
tp2789
a(F0.22059392929077148
I494
tp2790
a(F0.28541302680969238
I494
tp2791
a(F0.22526288032531738
I494
tp2792
a(F0.16053009033203125
I494
tp2793
a(F0.14180111885070801
I494
tp2794
a(F0.14194798469543457
I494
tp2795
a(F0.21191716194152832
I496
tp2796
a(F0.20938992500305176
I497
tp2797
a(F0.21512699127197266
I497
tp2798
a(F0.28164386749267578
I499
tp2799
a(F0.4939420223236084
I501
tp2800
a(F0.28525900840759277
I501
tp2801
a(F0.075302839279174805
I501
tp2802
a(F0.37725591659545898
I501
tp2803
a(F0.35515713691711426
I501
tp2804
a(F0.50464701652526855
I503
tp2805
a(F0.53990292549133301
I503
tp2806
a(F0.44459390640258789
I503
tp2807
a(F0.39037179946899414
I504
tp2808
a(F0.29760599136352539
I504
tp2809
a(F0.36265897750854492
I504
tp2810
a(F0.12989711761474609
I504
tp2811
a(F0.13729596138000488
I504
tp2812
a(F0.076272010803222656
I504
tp2813
a(F0.1435401439666748
I505
tp2814
a(F0.17187094688415527
I505
tp2815
a(F0.076395034790039062
I505
tp2816
a(F0.078403949737548828
I505
tp2817
a(F0.078969955444335938
I505
tp2818
a(F0.075684070587158203
I505
tp2819
a(F0.14835000038146973
I505
tp2820
a(F0.1500709056854248
I505
tp2821
a(F0.29451894760131836
I505
tp2822
a(F0.36823892593383789
I505
tp2823
a(F0.29071784019470215
I505
tp2824
a(F0.36959099769592285
I505
tp2825
a(F0.44905900955200195
I505
tp2826
a(F0.52577304840087891
I505
tp2827
a(F0.56946611404418945
I505
tp2828
a(F0.5279998779296875
I505
tp2829
a(F0.45335698127746582
I505
tp2830
a(F0.5827939510345459
I505
tp2831
a(F0.49798202514648438
I505
tp2832
a(F0.53980207443237305
I505
tp2833
a(F0.43268489837646484
I505
tp2834
a(F0.37966203689575195
I505
tp2835
a(F0.3791811466217041
I505
tp2836
a(F0.38826298713684082
I505
tp2837
a(F0.4600529670715332
I506
tp2838
a(F0.31370019912719727
I506
tp2839
a(F0.36281514167785645
I506
tp2840
a(F0.29359316825866699
I506
tp2841
a(F0.37966704368591309
I507
tp2842
a(F0.37940001487731934
I507
tp2843
a(F0.39042496681213379
I507
tp2844
a(F0.38206696510314941
I507
tp2845
a(F0.39293599128723145
I507
tp2846
a(F0.22242403030395508
I507
tp2847
a(F0.28888297080993652
I508
tp2848
a(F0.30212998390197754
I508
tp2849
a(F0.29937410354614258
I508
tp2850
a(F0.30574989318847656
I508
tp2851
a(F0.2233269214630127
I508
tp2852
a(F0.22718596458435059
I508
tp2853
a(F0.29131698608398438
I509
tp2854
a(F0.3045039176940918
I509
tp2855
a(F0.31082415580749512
I510
tp2856
a(F0.3950190544128418
I511
tp2857
a(F0.39416813850402832
I511
tp2858
a(F0.30119109153747559
I511
tp2859
a(F0.43950080871582031
I512
tp2860
a(F0.37182784080505371
I512
tp2861
a(F0.37409710884094238
I512
tp2862
a(F0.38249301910400391
I512
tp2863
a(F0.37783908843994141
I512
tp2864
a(F0.41170477867126465
I512
tp2865
a(F0.45037484169006348
I513
tp2866
a(F0.38999199867248535
I513
tp2867
a(F0.36624288558959961
I513
tp2868
a(F0.47506880760192871
I514
tp2869
a(F0.46314501762390137
I514
tp2870
a(F0.45499992370605469
I514
tp2871
a(F0.45976996421813965
I514
tp2872
a(F0.38712882995605469
I514
tp2873
a(F0.389984130859375
I514
tp2874
a(F0.38826894760131836
I515
tp2875
a(F0.45843911170959473
I516
tp2876
a(F0.5166480541229248
I516
tp2877
a(F0.39080095291137695
I516
tp2878
a(F0.39344501495361328
I516
tp2879
a(F0.37793898582458496
I517
tp2880
a(F0.39358401298522949
I517
tp2881
a(F0.46199989318847656
I518
tp2882
a(F0.38240385055541992
I518
tp2883
a(F0.45593118667602539
I518
tp2884
a(F0.31360197067260742
I518
tp2885
a(F0.38163495063781738
I518
tp2886
a(F0.40856790542602539
I518
tp2887
a(F0.46295905113220215
I519
tp2888
a(F0.30581903457641602
I520
tp2889
a(F0.38727498054504395
I520
tp2890
a(F0.3841099739074707
I520
tp2891
a(F0.46563601493835449
I520
tp2892
a(F0.46873998641967773
I520
tp2893
a(F0.38797712326049805
I520
tp2894
a(F0.38509202003479004
I520
tp2895
a(F0.34195804595947266
I520
tp2896
a(F0.35066795349121094
I520
tp2897
a(F0.39057588577270508
I521
tp2898
a(F0.53898191452026367
I523
tp2899
a(F0.61489391326904297
I524
tp2900
a(F0.38924813270568848
I525
tp2901
a(F0.32670688629150391
I525
tp2902
a(F0.41970086097717285
I526
tp2903
a(F0.33545494079589844
I526
tp2904
a(F0.16909909248352051
I526
tp2905
a(F0.16331982612609863
I526
tp2906
a(F0.18062806129455566
I526
tp2907
a(F0.10154509544372559
I526
tp2908
a(F0.08685302734375
I526
tp2909
a(F0.0055990219116210938
I526
tp2910
a(F0.0099549293518066406
I526
tp2911
a(F0.0095338821411132812
I526
tp2912
a(F0.0095510482788085938
I526
tp2913
a(F0.0050370693206787109
I526
tp2914
a(F0.0097911357879638672
I526
tp2915
a(F0.0049939155578613281
I526
tp2916
a(F0.0057559013366699219
I526
tp2917
a(F0.0060620307922363281
I526
tp2918
a(F0.0071139335632324219
I526
tp2919
a(F0.0050120353698730469
I526
tp2920
a(F0.083389997482299805
I526
tp2921
a(F0.083760976791381836
I526
tp2922
a(F0.23736310005187988
I526
tp2923
a(F0.25933194160461426
I526
tp2924
a(F0.35149788856506348
I526
tp2925
a(F0.32873010635375977
I526
tp2926
a(F0.35161399841308594
I526
tp2927
a(F0.17131781578063965
I526
tp2928
a(F0.16161394119262695
I526
tp2929
a(F0.24440193176269531
I526
tp2930
a(F0.24160885810852051
I526
tp2931
a(F0.25827383995056152
I526
tp2932
a(F0.19804501533508301
I526
tp2933
a(F0.24870419502258301
I526
tp2934
a(F0.24316716194152832
I526
tp2935
a(F0.4272010326385498
I526
tp2936
a(F0.32856202125549316
I526
tp2937
a(F0.41744709014892578
I526
tp2938
a(F0.56415295600891113
I526
tp2939
a(F0.48061203956604004
I526
tp2940
a(F0.47039604187011719
I526
tp2941
a(F0.48532295227050781
I526
tp2942
a(F0.39276313781738281
I526
tp2943
a(F0.47281193733215332
I526
tp2944
a(F0.39540481567382812
I526
tp2945
a(F0.47425484657287598
I526
tp2946
a(F0.40376186370849609
I526
tp2947
a(F0.47355890274047852
I526
tp2948
a(F0.49941396713256836
I526
tp2949
a(F0.63420009613037109
I526
tp2950
a(F0.80493307113647461
I527
tp2951
a(F0.65422892570495605
I527
tp2952
a(F0.64745378494262695
I527
tp2953
a(F0.80955100059509277
I527
tp2954
a(F0.75852203369140625
I528
tp2955
a(F0.88489603996276855
I529
tp2956
a(F0.98347806930541992
I529
tp2957
a(F0.8999018669128418
I529
tp2958
a(F0.88469982147216797
I530
tp2959
a(F0.71601510047912598
I530
tp2960
a(F0.62159419059753418
I532
tp2961
a(F0.49762797355651855
I532
tp2962
a(F0.40586686134338379
I532
tp2963
a(F0.43030405044555664
I532
tp2964
a(F0.51084518432617188
I533
tp2965
a(F0.41606903076171875
I533
tp2966
a(F0.33356595039367676
I533
tp2967
a(F0.32846307754516602
I533
tp2968
a(F0.33683490753173828
I533
tp2969
a(F0.34660601615905762
I533
tp2970
a(F0.33782291412353516
I533
tp2971
a(F0.16549801826477051
I533
tp2972
a(F0.20731496810913086
I533
tp2973
a(F0.16716098785400391
I533
tp2974
a(F0.19995403289794922
I533
tp2975
a(F0.20269083976745605
I533
tp2976
a(F0.088640928268432617
I533
tp2977
a(F0.083551883697509766
I533
tp2978
a(F0.10591387748718262
I533
tp2979
a(F0.10804891586303711
I533
tp2980
a(F0.13671684265136719
I533
tp2981
a(F0.0098030567169189453
I533
tp2982
a(F0.00998687744140625
I533
tp2983
a(F0.10743904113769531
I533
tp2984
a(F0.28185415267944336
I533
tp2985
a(F0.54050993919372559
I534
tp2986
a(F0.4192039966583252
I534
tp2987
a(F0.55996894836425781
I534
tp2988
a(F0.57247304916381836
I534
tp2989
a(F0.57205510139465332
I534
tp2990
a(F0.60719609260559082
I534
tp2991
a(F0.42145013809204102
I534
tp2992
a(F0.34954285621643066
I534
tp2993
a(F0.33213996887207031
I534
tp2994
a(F0.33658194541931152
I534
tp2995
a(F0.4426419734954834
I534
tp2996
a(F0.25021696090698242
I534
tp2997
a(F0.33108305931091309
I534
tp2998
a(F0.33251404762268066
I534
tp2999
a(F0.34782695770263672
I534
tp3000
a(F0.27608394622802734
I534
tp3001
a(F0.25137186050415039
I534
tp3002
a(F0.33925104141235352
I534
tp3003
a(F0.34941887855529785
I534
tp3004
a(F0.31119513511657715
I534
tp3005
a(F0.72630596160888672
I534
tp3006
a(F0.66652297973632812
I534
tp3007
a(F0.65085697174072266
I534
tp3008
a(F0.5629878044128418
I534
tp3009
a(F0.59005904197692871
I534
tp3010
a(F0.65171694755554199
I534
tp3011
a(F0.56516695022583008
I534
tp3012
a(F0.40406012535095215
I534
tp3013
a(F0.64395809173583984
I534
tp3014
a(F0.58150315284729004
I534
tp3015
a(F0.57166409492492676
I534
tp3016
a(F0.64384913444519043
I534
tp3017
a(F0.58794808387756348
I534
tp3018
a(F0.59190082550048828
I534
tp3019
a(F0.49289703369140625
I534
tp3020
a(F0.4246518611907959
I534
tp3021
a(F0.50841403007507324
I534
tp3022
a(F0.57647299766540527
I534
tp3023
a(F0.5693199634552002
I534
tp3024
a(F0.56657910346984863
I534
tp3025
a(F0.56444811820983887
I534
tp3026
a(F0.59489679336547852
I534
tp3027
a(F0.49761080741882324
I534
tp3028
a(F0.41597604751586914
I534
tp3029
a(F0.49677920341491699
I534
tp3030
a(F0.48714900016784668
I534
tp3031
a(F0.49839305877685547
I534
tp3032
a(F0.49287104606628418
I534
tp3033
a(F0.48904013633728027
I534
tp3034
a(F0.57013893127441406
I534
tp3035
a(F0.4274449348449707
I534
tp3036
a(F0.48116803169250488
I534
tp3037
a(F0.39930605888366699
I534
tp3038
a(F0.49977684020996094
I534
tp3039
a(F0.49818897247314453
I534
tp3040
a(F0.41628408432006836
I534
tp3041
a(F0.40900516510009766
I534
tp3042
a(F0.54642987251281738
I534
tp3043
a(F0.49333381652832031
I534
tp3044
a(F0.5754249095916748
I534
tp3045
a(F0.57542681694030762
I534
tp3046
a(F0.56686615943908691
I534
tp3047
a(F0.57776093482971191
I534
tp3048
a(F0.48699712753295898
I534
tp3049
a(F0.50436210632324219
I534
tp3050
a(F0.57085299491882324
I534
tp3051
a(F0.57809185981750488
I534
tp3052
a(F0.42554211616516113
I534
tp3053
a(F0.42018699645996094
I534
tp3054
a(F0.42642402648925781
I534
tp3055
a(F0.3308711051940918
I534
tp3056
a(F0.41979694366455078
I534
tp3057
a(F0.40647697448730469
I534
tp3058
a(F0.35049104690551758
I534
tp3059
a(F0.3404541015625
I534
tp3060
a(F0.41887712478637695
I534
tp3061
a(F0.66843986511230469
I534
tp3062
a(F0.56821489334106445
I534
tp3063
a(F0.6755368709564209
I534
tp3064
a(F0.74970102310180664
I534
tp3065
a(F0.66965317726135254
I534
tp3066
a(F0.57448911666870117
I534
tp3067
a(F0.56814813613891602
I534
tp3068
a(F0.49624300003051758
I534
tp3069
a(F0.5001518726348877
I534
tp3070
a(F0.5694119930267334
I534
tp3071
a(F0.68041014671325684
I534
tp3072
a(F0.69244503974914551
I534
tp3073
a(F0.64826512336730957
I534
tp3074
a(F0.72493791580200195
I534
tp3075
a(F0.75364303588867188
I534
tp3076
a(F0.74112105369567871
I534
tp3077
a(F0.49579191207885742
I534
tp3078
a(F0.50204610824584961
I534
tp3079
a(F0.49885296821594238
I534
tp3080
a(F0.5214381217956543
I534
tp3081
a(F0.49699091911315918
I534
tp3082
a(F0.48562002182006836
I534
tp3083
a(F0.41550493240356445
I534
tp3084
a(F0.4407660961151123
I534
tp3085
a(F0.41952800750732422
I534
tp3086
a(F0.49304103851318359
I534
tp3087
a(F0.42684698104858398
I534
tp3088
a(F0.41905593872070312
I534
tp3089
a(F0.48393082618713379
I534
tp3090
a(F0.49662899971008301
I534
tp3091
a(F0.34740114212036133
I534
tp3092
a(F0.3692319393157959
I534
tp3093
a(F0.33261895179748535
I534
tp3094
a(F0.40892505645751953
I534
tp3095
a(F0.4383540153503418
I534
tp3096
a(F0.52477598190307617
I534
tp3097
a(F0.44433712959289551
I534
tp3098
a(F0.29341983795166016
I534
tp3099
a(F0.33410501480102539
I534
tp3100
a(F0.48925495147705078
I534
tp3101
a(F0.48794794082641602
I534
tp3102
a(F0.48102688789367676
I534
tp3103
a(F0.48324298858642578
I534
tp3104
a(F0.47800588607788086
I534
tp3105
a(F0.51650595664978027
I534
tp3106
a(F0.49576497077941895
I534
tp3107
a(F0.50108695030212402
I534
tp3108
a(F0.17854499816894531
I534
tp3109
a(F0.39112710952758789
I534
tp3110
a(F0.58775901794433594
I534
tp3111
a(F0.50016689300537109
I534
tp3112
a(F0.3251190185546875
I534
tp3113
a(F0.66950106620788574
I534
tp3114
a(F0.57829499244689941
I534
tp3115
a(F0.57166099548339844
I534
tp3116
a(F0.54515314102172852
I534
tp3117
a(F0.41974282264709473
I534
tp3118
a(F0.63572382926940918
I534
tp3119
a(F0.48953819274902344
I534
tp3120
a(F0.42487621307373047
I534
tp3121
a(F0.55918598175048828
I535
tp3122
a(F0.56581282615661621
I536
tp3123
a(F0.49667215347290039
I536
tp3124
a(F0.57423114776611328
I537
tp3125
a(F0.58709001541137695
I539
tp3126
a(F0.4334101676940918
I539
tp3127
a(F0.36124491691589355
I539
tp3128
a(F0.41974186897277832
I539
tp3129
a(F0.36162686347961426
I539
tp3130
a(F0.34514403343200684
I540
tp3131
a(F0.41285300254821777
I541
tp3132
a(F0.41570591926574707
I541
tp3133
a(F0.43356204032897949
I542
tp3134
a(F0.51625418663024902
I542
tp3135
a(F0.41547012329101562
I542
tp3136
a(F0.42836213111877441
I542
tp3137
a(F0.52256917953491211
I543
tp3138
a(F0.51346778869628906
I543
tp3139
a(F0.50597691535949707
I543
tp3140
a(F0.52341198921203613
I543
tp3141
a(F0.52520489692687988
I543
tp3142
a(F0.42365193367004395
I543
tp3143
a(F0.4303278923034668
I543
tp3144
a(F0.49744391441345215
I545
tp3145
a(F0.52575802803039551
I545
tp3146
a(F0.43625092506408691
I545
tp3147
a(F0.36159992218017578
I545
tp3148
a(F0.44518494606018066
I545
tp3149
a(F0.34094405174255371
I545
tp3150
a(F0.34120321273803711
I545
tp3151
a(F0.3651740550994873
I545
tp3152
a(F0.28186607360839844
I545
tp3153
a(F0.29745078086853027
I545
tp3154
a(F0.35430788993835449
I546
tp3155
a(F0.26850986480712891
I546
tp3156
a(F0.17476081848144531
I546
tp3157
a(F0.28892302513122559
I546
tp3158
a(F0.18205499649047852
I546
tp3159
a(F0.35376620292663574
I547
tp3160
a(F0.26226806640625
I547
tp3161
a(F0.27099084854125977
I547
tp3162
a(F0.19596695899963379
I547
tp3163
a(F0.20828104019165039
I547
tp3164
a(F0.10310983657836914
I547
tp3165
a(F0.23102307319641113
I548
tp3166
a(F0.10915803909301758
I548
tp3167
a(F0.17984700202941895
I548
tp3168
a(F0.090409994125366211
I548
tp3169
a(F0.27379107475280762
I549
tp3170
a(F0.17492389678955078
I549
tp3171
a(F0.19681000709533691
I549
tp3172
a(F0.096930980682373047
I549
tp3173
a(F0.27811312675476074
I551
tp3174
a(F0.36572694778442383
I551
tp3175
a(F0.44663810729980469
I552
tp3176
a(F0.27857089042663574
I552
tp3177
a(F0.29444098472595215
I552
tp3178
a(F0.28625607490539551
I552
tp3179
a(F0.26583600044250488
I552
tp3180
a(F0.32748699188232422
I552
tp3181
a(F0.39011907577514648
I553
tp3182
a(F0.35292816162109375
I553
tp3183
a(F0.37908792495727539
I553
tp3184
a(F0.34500312805175781
I553
tp3185
a(F0.27812719345092773
I553
tp3186
a(F0.26647710800170898
I553
tp3187
a(F0.27375006675720215
I553
tp3188
a(F0.26515698432922363
I553
tp3189
a(F0.27131819725036621
I553
tp3190
a(F0.1783900260925293
I553
tp3191
a(F0.1951911449432373
I553
tp3192
a(F0.094298124313354492
I553
tp3193
a(F0.091781139373779297
I553
tp3194
a(F0.17643594741821289
I553
tp3195
a(F0.09250187873840332
I553
tp3196
a(F0.093621015548706055
I553
tp3197
a(F0.0062570571899414062
I553
tp3198
a(F0.28855991363525391
I553
tp3199
a(F0.35232400894165039
I553
tp3200
a(F0.0051817893981933594
I553
tp3201
a(F0.00521087646484375
I553
tp3202
a(F0.35047602653503418
I553
tp3203
a(F0.27805805206298828
I553
tp3204
a(F0.27063703536987305
I553
tp3205
a(F0.26439690589904785
I553
tp3206
a(F0.27878499031066895
I553
tp3207
a(F0.27386903762817383
I553
tp3208
a(F0.18258023262023926
I553
tp3209
a(F0.45876407623291016
I553
tp3210
a(F0.43979811668395996
I553
tp3211
a(F0.4375908374786377
I553
tp3212
a(F0.4583430290222168
I553
tp3213
a(F0.35141682624816895
I553
tp3214
a(F0.37963199615478516
I553
tp3215
a(F0.35930395126342773
I553
tp3216
a(F0.45390105247497559
I553
tp3217
a(F0.46856212615966797
I553
tp3218
a(F0.42534780502319336
I553
tp3219
a(F0.28239798545837402
I553
tp3220
a(F0.35932111740112305
I553
tp3221
a(F0.38026809692382812
I553
tp3222
a(F0.38650703430175781
I553
tp3223
a(F0.37144303321838379
I553
tp3224
a(F0.3476259708404541
I553
tp3225
a(F0.35543704032897949
I553
tp3226
a(F0.38386917114257812
I553
tp3227
a(F0.35517406463623047
I553
tp3228
a(F0.35998392105102539
I553
tp3229
a(F0.18657994270324707
I553
tp3230
a(F0.29246306419372559
I553
tp3231
a(F0.43592286109924316
I553
tp3232
a(F0.44319295883178711
I553
tp3233
a(F0.46831297874450684
I553
tp3234
a(F0.44945788383483887
I553
tp3235
a(F0.43508505821228027
I553
tp3236
a(F0.36647200584411621
I553
tp3237
a(F0.45711302757263184
I553
tp3238
a(F0.61356902122497559
I553
tp3239
a(F0.43857097625732422
I553
tp3240
a(F0.4457700252532959
I553
tp3241
a(F0.35251593589782715
I553
tp3242
a(F0.44299197196960449
I553
tp3243
a(F0.61874294281005859
I553
tp3244
a(F0.70199418067932129
I553
tp3245
a(F0.6125340461730957
I553
tp3246
a(F0.53049516677856445
I553
tp3247
a(F0.44235110282897949
I553
tp3248
a(F0.54619693756103516
I553
tp3249
a(F0.52947592735290527
I553
tp3250
a(F0.46752500534057617
I553
tp3251
a(F0.63824605941772461
I553
tp3252
a(F0.62255501747131348
I553
tp3253
a(F0.52891087532043457
I553
tp3254
a(F0.6939389705657959
I553
tp3255
a(F0.63660717010498047
I553
tp3256
a(F0.7168278694152832
I553
tp3257
a(F0.61211109161376953
I553
tp3258
a(F0.60611200332641602
I553
tp3259
a(F0.69654202461242676
I553
tp3260
a(F0.73154211044311523
I553
tp3261
a(F0.61282896995544434
I553
tp3262
a(F0.70087194442749023
I553
tp3263
a(F0.69974589347839355
I553
tp3264
a(F0.43786501884460449
I553
tp3265
a(F0.35411381721496582
I554
tp3266
a(F0.27613091468811035
I554
tp3267
a(F0.26306986808776855
I554
tp3268
a(F0.27522802352905273
I554
tp3269
a(F0.27718591690063477
I554
tp3270
a(F0.35141205787658691
I555
tp3271
a(F0.37845516204833984
I555
tp3272
a(F0.51704883575439453
I557
tp3273
a(F0.55105090141296387
I557
tp3274
a(F0.53156685829162598
I557
tp3275
a(F0.44416594505310059
I557
tp3276
a(F0.56341099739074707
I558
tp3277
a(F0.5526268482208252
I559
tp3278
a(F0.45209479331970215
I559
tp3279
a(F0.55472993850708008
I559
tp3280
a(F0.45030498504638672
I559
tp3281
a(F0.31314492225646973
I559
tp3282
a(F0.26856517791748047
I559
tp3283
a(F0.27480602264404297
I559
tp3284
a(F0.29292798042297363
I559
tp3285
a(F0.29614686965942383
I559
tp3286
a(F0.28214788436889648
I559
tp3287
a(F0.18717098236083984
I559
tp3288
a(F0.19454813003540039
I559
tp3289
a(F0.10391092300415039
I559
tp3290
a(F0.093724966049194336
I559
tp3291
a(F0.19264101982116699
I559
tp3292
a(F0.12665605545043945
I559
tp3293
a(F0.18211793899536133
I559
tp3294
a(F0.38873600959777832
I559
tp3295
a(F0.61885309219360352
I559
tp3296
a(F0.66382789611816406
I559
tp3297
a(F0.83280420303344727
I559
tp3298
a.